
bomb:     file format elf64-x86-64


Disassembly of section .init:

0000000000400ad0 <.init>:
  400ad0:	48 83 ec 08          	sub    rsp,0x8
  400ad4:	48 8b 05 1d 25 20 00 	mov    rax,QWORD PTR [rip+0x20251d]        # 602ff8 <usleep@plt+0x202358>
  400adb:	48 85 c0             	test   rax,rax
  400ade:	74 02                	je     400ae2 <getenv@plt-0x1e>
  400ae0:	ff d0                	call   rax
  400ae2:	48 83 c4 08          	add    rsp,0x8
  400ae6:	c3                   	ret    

Disassembly of section .plt:

0000000000400af0 <getenv@plt-0x10>:
  400af0:	ff 35 12 25 20 00    	push   QWORD PTR [rip+0x202512]        # 603008 <usleep@plt+0x202368>
  400af6:	ff 25 14 25 20 00    	jmp    QWORD PTR [rip+0x202514]        # 603010 <usleep@plt+0x202370>
  400afc:	0f 1f 40 00          	nop    DWORD PTR [rax+0x0]

0000000000400b00 <getenv@plt>:
  400b00:	ff 25 12 25 20 00    	jmp    QWORD PTR [rip+0x202512]        # 603018 <usleep@plt+0x202378>
  400b06:	68 00 00 00 00       	push   0x0
  400b0b:	e9 e0 ff ff ff       	jmp    400af0 <getenv@plt-0x10>

0000000000400b10 <__snprintf_chk@plt>:
  400b10:	ff 25 0a 25 20 00    	jmp    QWORD PTR [rip+0x20250a]        # 603020 <usleep@plt+0x202380>
  400b16:	68 01 00 00 00       	push   0x1
  400b1b:	e9 d0 ff ff ff       	jmp    400af0 <getenv@plt-0x10>

0000000000400b20 <free@plt>:
  400b20:	ff 25 02 25 20 00    	jmp    QWORD PTR [rip+0x202502]        # 603028 <usleep@plt+0x202388>
  400b26:	68 02 00 00 00       	push   0x2
  400b2b:	e9 c0 ff ff ff       	jmp    400af0 <getenv@plt-0x10>

0000000000400b30 <strncpy@plt>:
  400b30:	ff 25 fa 24 20 00    	jmp    QWORD PTR [rip+0x2024fa]        # 603030 <usleep@plt+0x202390>
  400b36:	68 03 00 00 00       	push   0x3
  400b3b:	e9 b0 ff ff ff       	jmp    400af0 <getenv@plt-0x10>

0000000000400b40 <fread@plt>:
  400b40:	ff 25 f2 24 20 00    	jmp    QWORD PTR [rip+0x2024f2]        # 603038 <usleep@plt+0x202398>
  400b46:	68 04 00 00 00       	push   0x4
  400b4b:	e9 a0 ff ff ff       	jmp    400af0 <getenv@plt-0x10>

0000000000400b50 <fclose@plt>:
  400b50:	ff 25 ea 24 20 00    	jmp    QWORD PTR [rip+0x2024ea]        # 603040 <usleep@plt+0x2023a0>
  400b56:	68 05 00 00 00       	push   0x5
  400b5b:	e9 90 ff ff ff       	jmp    400af0 <getenv@plt-0x10>

0000000000400b60 <strlen@plt>:
  400b60:	ff 25 e2 24 20 00    	jmp    QWORD PTR [rip+0x2024e2]        # 603048 <usleep@plt+0x2023a8>
  400b66:	68 06 00 00 00       	push   0x6
  400b6b:	e9 80 ff ff ff       	jmp    400af0 <getenv@plt-0x10>

0000000000400b70 <__stack_chk_fail@plt>:
  400b70:	ff 25 da 24 20 00    	jmp    QWORD PTR [rip+0x2024da]        # 603050 <usleep@plt+0x2023b0>
  400b76:	68 07 00 00 00       	push   0x7
  400b7b:	e9 70 ff ff ff       	jmp    400af0 <getenv@plt-0x10>

0000000000400b80 <strchr@plt>:
  400b80:	ff 25 d2 24 20 00    	jmp    QWORD PTR [rip+0x2024d2]        # 603058 <usleep@plt+0x2023b8>
  400b86:	68 08 00 00 00       	push   0x8
  400b8b:	e9 60 ff ff ff       	jmp    400af0 <getenv@plt-0x10>

0000000000400b90 <pclose@plt>:
  400b90:	ff 25 ca 24 20 00    	jmp    QWORD PTR [rip+0x2024ca]        # 603060 <usleep@plt+0x2023c0>
  400b96:	68 09 00 00 00       	push   0x9
  400b9b:	e9 50 ff ff ff       	jmp    400af0 <getenv@plt-0x10>

0000000000400ba0 <fputs@plt>:
  400ba0:	ff 25 c2 24 20 00    	jmp    QWORD PTR [rip+0x2024c2]        # 603068 <usleep@plt+0x2023c8>
  400ba6:	68 0a 00 00 00       	push   0xa
  400bab:	e9 40 ff ff ff       	jmp    400af0 <getenv@plt-0x10>

0000000000400bb0 <fgets@plt>:
  400bb0:	ff 25 ba 24 20 00    	jmp    QWORD PTR [rip+0x2024ba]        # 603070 <usleep@plt+0x2023d0>
  400bb6:	68 0b 00 00 00       	push   0xb
  400bbb:	e9 30 ff ff ff       	jmp    400af0 <getenv@plt-0x10>

0000000000400bc0 <__getdelim@plt>:
  400bc0:	ff 25 b2 24 20 00    	jmp    QWORD PTR [rip+0x2024b2]        # 603078 <usleep@plt+0x2023d8>
  400bc6:	68 0c 00 00 00       	push   0xc
  400bcb:	e9 20 ff ff ff       	jmp    400af0 <getenv@plt-0x10>

0000000000400bd0 <signal@plt>:
  400bd0:	ff 25 aa 24 20 00    	jmp    QWORD PTR [rip+0x2024aa]        # 603080 <usleep@plt+0x2023e0>
  400bd6:	68 0d 00 00 00       	push   0xd
  400bdb:	e9 10 ff ff ff       	jmp    400af0 <getenv@plt-0x10>

0000000000400be0 <feof@plt>:
  400be0:	ff 25 a2 24 20 00    	jmp    QWORD PTR [rip+0x2024a2]        # 603088 <usleep@plt+0x2023e8>
  400be6:	68 0e 00 00 00       	push   0xe
  400beb:	e9 00 ff ff ff       	jmp    400af0 <getenv@plt-0x10>

0000000000400bf0 <__sysv_signal@plt>:
  400bf0:	ff 25 9a 24 20 00    	jmp    QWORD PTR [rip+0x20249a]        # 603090 <usleep@plt+0x2023f0>
  400bf6:	68 0f 00 00 00       	push   0xf
  400bfb:	e9 f0 fe ff ff       	jmp    400af0 <getenv@plt-0x10>

0000000000400c00 <err@plt>:
  400c00:	ff 25 92 24 20 00    	jmp    QWORD PTR [rip+0x202492]        # 603098 <usleep@plt+0x2023f8>
  400c06:	68 10 00 00 00       	push   0x10
  400c0b:	e9 e0 fe ff ff       	jmp    400af0 <getenv@plt-0x10>

0000000000400c10 <fflush@plt>:
  400c10:	ff 25 8a 24 20 00    	jmp    QWORD PTR [rip+0x20248a]        # 6030a0 <usleep@plt+0x202400>
  400c16:	68 11 00 00 00       	push   0x11
  400c1b:	e9 d0 fe ff ff       	jmp    400af0 <getenv@plt-0x10>

0000000000400c20 <__isoc99_sscanf@plt>:
  400c20:	ff 25 82 24 20 00    	jmp    QWORD PTR [rip+0x202482]        # 6030a8 <usleep@plt+0x202408>
  400c26:	68 12 00 00 00       	push   0x12
  400c2b:	e9 c0 fe ff ff       	jmp    400af0 <getenv@plt-0x10>

0000000000400c30 <__printf_chk@plt>:
  400c30:	ff 25 7a 24 20 00    	jmp    QWORD PTR [rip+0x20247a]        # 6030b0 <usleep@plt+0x202410>
  400c36:	68 13 00 00 00       	push   0x13
  400c3b:	e9 b0 fe ff ff       	jmp    400af0 <getenv@plt-0x10>

0000000000400c40 <popen@plt>:
  400c40:	ff 25 72 24 20 00    	jmp    QWORD PTR [rip+0x202472]        # 6030b8 <usleep@plt+0x202418>
  400c46:	68 14 00 00 00       	push   0x14
  400c4b:	e9 a0 fe ff ff       	jmp    400af0 <getenv@plt-0x10>

0000000000400c50 <fopen@plt>:
  400c50:	ff 25 6a 24 20 00    	jmp    QWORD PTR [rip+0x20246a]        # 6030c0 <usleep@plt+0x202420>
  400c56:	68 15 00 00 00       	push   0x15
  400c5b:	e9 90 fe ff ff       	jmp    400af0 <getenv@plt-0x10>

0000000000400c60 <exit@plt>:
  400c60:	ff 25 62 24 20 00    	jmp    QWORD PTR [rip+0x202462]        # 6030c8 <usleep@plt+0x202428>
  400c66:	68 16 00 00 00       	push   0x16
  400c6b:	e9 80 fe ff ff       	jmp    400af0 <getenv@plt-0x10>

0000000000400c70 <__fprintf_chk@plt>:
  400c70:	ff 25 5a 24 20 00    	jmp    QWORD PTR [rip+0x20245a]        # 6030d0 <usleep@plt+0x202430>
  400c76:	68 17 00 00 00       	push   0x17
  400c7b:	e9 70 fe ff ff       	jmp    400af0 <getenv@plt-0x10>

0000000000400c80 <sleep@plt>:
  400c80:	ff 25 52 24 20 00    	jmp    QWORD PTR [rip+0x202452]        # 6030d8 <usleep@plt+0x202438>
  400c86:	68 18 00 00 00       	push   0x18
  400c8b:	e9 60 fe ff ff       	jmp    400af0 <getenv@plt-0x10>

0000000000400c90 <__ctype_b_loc@plt>:
  400c90:	ff 25 4a 24 20 00    	jmp    QWORD PTR [rip+0x20244a]        # 6030e0 <usleep@plt+0x202440>
  400c96:	68 19 00 00 00       	push   0x19
  400c9b:	e9 50 fe ff ff       	jmp    400af0 <getenv@plt-0x10>

0000000000400ca0 <usleep@plt>:
  400ca0:	ff 25 42 24 20 00    	jmp    QWORD PTR [rip+0x202442]        # 6030e8 <usleep@plt+0x202448>
  400ca6:	68 1a 00 00 00       	push   0x1a
  400cab:	e9 40 fe ff ff       	jmp    400af0 <getenv@plt-0x10>

Disassembly of section .text:

0000000000400cb0 <.text>:
  400cb0:	83 ff 01             	cmp    edi,0x1
  400cb3:	53                   	push   rbx
  400cb4:	0f 84 52 01 00 00    	je     400e0c <usleep@plt+0x16c>
  400cba:	83 ff 02             	cmp    edi,0x2
  400cbd:	48 89 f3             	mov    rbx,rsi
  400cc0:	0f 85 79 01 00 00    	jne    400e3f <usleep@plt+0x19f>
  400cc6:	48 8b 7e 08          	mov    rdi,QWORD PTR [rsi+0x8]
  400cca:	be 98 1d 40 00       	mov    esi,0x401d98
  400ccf:	e8 7c ff ff ff       	call   400c50 <fopen@plt>
  400cd4:	48 85 c0             	test   rax,rax
  400cd7:	48 89 05 5a 24 20 00 	mov    QWORD PTR [rip+0x20245a],rax        # 603138 <stderr@@GLIBC_2.2.5+0x18>
  400cde:	0f 84 3b 01 00 00    	je     400e1f <usleep@plt+0x17f>
  400ce4:	e8 47 0d 00 00       	call   401a30 <usleep@plt+0xd90>
  400ce9:	e8 c2 04 00 00       	call   4011b0 <usleep@plt+0x510>
  400cee:	ba c0 1d 40 00       	mov    edx,0x401dc0
  400cf3:	be b2 23 40 00       	mov    esi,0x4023b2
  400cf8:	bf 01 00 00 00       	mov    edi,0x1
  400cfd:	31 c0                	xor    eax,eax
  400cff:	e8 2c ff ff ff       	call   400c30 <__printf_chk@plt>
  400d04:	be 78 1f 40 00       	mov    esi,0x401f78
  400d09:	bf 01 00 00 00       	mov    edi,0x1
  400d0e:	31 c0                	xor    eax,eax
  400d10:	e8 1b ff ff ff       	call   400c30 <__printf_chk@plt>
  400d15:	be b8 1f 40 00       	mov    esi,0x401fb8
  400d1a:	bf 01 00 00 00       	mov    edi,0x1
  400d1f:	31 c0                	xor    eax,eax
  400d21:	e8 0a ff ff ff       	call   400c30 <__printf_chk@plt>
  400d26:	31 ff                	xor    edi,edi
  400d28:	83 05 fd 23 20 00 01 	add    DWORD PTR [rip+0x2023fd],0x1        # 60312c <stderr@@GLIBC_2.2.5+0xc>
  400d2f:	e8 fc 08 00 00       	call   401630 <usleep@plt+0x990>
  400d34:	e8 37 07 00 00       	call   401470 <usleep@plt+0x7d0>
  400d39:	ba 7b 1d 40 00       	mov    edx,0x401d7b
  400d3e:	be 85 1d 40 00       	mov    esi,0x401d85
  400d43:	bf 01 00 00 00       	mov    edi,0x1
  400d48:	31 c0                	xor    eax,eax
  400d4a:	83 05 db 23 20 00 01 	add    DWORD PTR [rip+0x2023db],0x1        # 60312c <stderr@@GLIBC_2.2.5+0xc>
  400d51:	e8 da fe ff ff       	call   400c30 <__printf_chk@plt>
  400d56:	e8 b5 05 00 00       	call   401310 <usleep@plt+0x670>
  400d5b:	48 89 c7             	mov    rdi,rax
  400d5e:	e8 4d 0a 00 00       	call   4017b0 <usleep@plt+0xb10>
  400d63:	e8 08 07 00 00       	call   401470 <usleep@plt+0x7d0>
  400d68:	ba e8 1f 40 00       	mov    edx,0x401fe8
  400d6d:	be b2 23 40 00       	mov    esi,0x4023b2
  400d72:	bf 01 00 00 00       	mov    edi,0x1
  400d77:	31 c0                	xor    eax,eax
  400d79:	e8 b2 fe ff ff       	call   400c30 <__printf_chk@plt>
  400d7e:	ba 93 1d 40 00       	mov    edx,0x401d93
  400d83:	be 85 1d 40 00       	mov    esi,0x401d85
  400d88:	bf 01 00 00 00       	mov    edi,0x1
  400d8d:	31 c0                	xor    eax,eax
  400d8f:	83 05 96 23 20 00 01 	add    DWORD PTR [rip+0x202396],0x1        # 60312c <stderr@@GLIBC_2.2.5+0xc>
  400d96:	e8 95 fe ff ff       	call   400c30 <__printf_chk@plt>
  400d9b:	e8 70 05 00 00       	call   401310 <usleep@plt+0x670>
  400da0:	48 89 c7             	mov    rdi,rax
  400da3:	e8 18 0a 00 00       	call   4017c0 <usleep@plt+0xb20>
  400da8:	e8 c3 06 00 00       	call   401470 <usleep@plt+0x7d0>
  400dad:	ba 9a 1d 40 00       	mov    edx,0x401d9a
  400db2:	be b2 23 40 00       	mov    esi,0x4023b2
  400db7:	bf 01 00 00 00       	mov    edi,0x1
  400dbc:	31 c0                	xor    eax,eax
  400dbe:	e8 6d fe ff ff       	call   400c30 <__printf_chk@plt>
  400dc3:	ba af 1d 40 00       	mov    edx,0x401daf
  400dc8:	be 85 1d 40 00       	mov    esi,0x401d85
  400dcd:	bf 01 00 00 00       	mov    edi,0x1
  400dd2:	31 c0                	xor    eax,eax
  400dd4:	83 05 51 23 20 00 01 	add    DWORD PTR [rip+0x202351],0x1        # 60312c <stderr@@GLIBC_2.2.5+0xc>
  400ddb:	e8 50 fe ff ff       	call   400c30 <__printf_chk@plt>
  400de0:	e8 2b 05 00 00       	call   401310 <usleep@plt+0x670>
  400de5:	48 89 c7             	mov    rdi,rax
  400de8:	e8 e3 0a 00 00       	call   4018d0 <usleep@plt+0xc30>
  400ded:	e8 7e 06 00 00       	call   401470 <usleep@plt+0x7d0>
  400df2:	ba b4 1d 40 00       	mov    edx,0x401db4
  400df7:	be b2 23 40 00       	mov    esi,0x4023b2
  400dfc:	bf 01 00 00 00       	mov    edi,0x1
  400e01:	31 c0                	xor    eax,eax
  400e03:	e8 28 fe ff ff       	call   400c30 <__printf_chk@plt>
  400e08:	31 c0                	xor    eax,eax
  400e0a:	5b                   	pop    rbx
  400e0b:	c3                   	ret    
  400e0c:	48 8b 05 fd 22 20 00 	mov    rax,QWORD PTR [rip+0x2022fd]        # 603110 <stdin@@GLIBC_2.2.5>
  400e13:	48 89 05 1e 23 20 00 	mov    QWORD PTR [rip+0x20231e],rax        # 603138 <stderr@@GLIBC_2.2.5+0x18>
  400e1a:	e9 c5 fe ff ff       	jmp    400ce4 <usleep@plt+0x44>
  400e1f:	48 8b 4b 08          	mov    rcx,QWORD PTR [rbx+0x8]
  400e23:	48 8b 13             	mov    rdx,QWORD PTR [rbx]
  400e26:	bf 01 00 00 00       	mov    edi,0x1
  400e2b:	be 44 1d 40 00       	mov    esi,0x401d44
  400e30:	e8 fb fd ff ff       	call   400c30 <__printf_chk@plt>
  400e35:	bf 08 00 00 00       	mov    edi,0x8
  400e3a:	e8 21 fe ff ff       	call   400c60 <exit@plt>
  400e3f:	48 8b 16             	mov    rdx,QWORD PTR [rsi]
  400e42:	bf 01 00 00 00       	mov    edi,0x1
  400e47:	be 61 1d 40 00       	mov    esi,0x401d61
  400e4c:	31 c0                	xor    eax,eax
  400e4e:	e8 dd fd ff ff       	call   400c30 <__printf_chk@plt>
  400e53:	bf 08 00 00 00       	mov    edi,0x8
  400e58:	e8 03 fe ff ff       	call   400c60 <exit@plt>
  400e5d:	0f 1f 00             	nop    DWORD PTR [rax]
  400e60:	31 ed                	xor    ebp,ebp
  400e62:	49 89 d1             	mov    r9,rdx
  400e65:	5e                   	pop    rsi
  400e66:	48 89 e2             	mov    rdx,rsp
  400e69:	48 83 e4 f0          	and    rsp,0xfffffffffffffff0
  400e6d:	50                   	push   rax
  400e6e:	54                   	push   rsp
  400e6f:	49 c7 c0 30 1d 40 00 	mov    r8,0x401d30
  400e76:	48 c7 c1 c0 1c 40 00 	mov    rcx,0x401cc0
  400e7d:	48 c7 c7 b0 0c 40 00 	mov    rdi,0x400cb0
  400e84:	ff 15 66 21 20 00    	call   QWORD PTR [rip+0x202166]        # 602ff0 <usleep@plt+0x202350>
  400e8a:	f4                   	hlt    
  400e8b:	0f 1f 44 00 00       	nop    DWORD PTR [rax+rax*1+0x0]
  400e90:	f3 c3                	repz ret 
  400e92:	66 2e 0f 1f 84 00 00 	nop    WORD PTR cs:[rax+rax*1+0x0]
  400e99:	00 00 00 
  400e9c:	0f 1f 40 00          	nop    DWORD PTR [rax+0x0]
  400ea0:	55                   	push   rbp
  400ea1:	b8 00 31 60 00       	mov    eax,0x603100
  400ea6:	48 3d 00 31 60 00    	cmp    rax,0x603100
  400eac:	48 89 e5             	mov    rbp,rsp
  400eaf:	74 17                	je     400ec8 <usleep@plt+0x228>
  400eb1:	b8 00 00 00 00       	mov    eax,0x0
  400eb6:	48 85 c0             	test   rax,rax
  400eb9:	74 0d                	je     400ec8 <usleep@plt+0x228>
  400ebb:	5d                   	pop    rbp
  400ebc:	bf 00 31 60 00       	mov    edi,0x603100
  400ec1:	ff e0                	jmp    rax
  400ec3:	0f 1f 44 00 00       	nop    DWORD PTR [rax+rax*1+0x0]
  400ec8:	5d                   	pop    rbp
  400ec9:	c3                   	ret    
  400eca:	66 0f 1f 44 00 00    	nop    WORD PTR [rax+rax*1+0x0]
  400ed0:	be 00 31 60 00       	mov    esi,0x603100
  400ed5:	55                   	push   rbp
  400ed6:	48 81 ee 00 31 60 00 	sub    rsi,0x603100
  400edd:	48 89 e5             	mov    rbp,rsp
  400ee0:	48 c1 fe 03          	sar    rsi,0x3
  400ee4:	48 89 f0             	mov    rax,rsi
  400ee7:	48 c1 e8 3f          	shr    rax,0x3f
  400eeb:	48 01 c6             	add    rsi,rax
  400eee:	48 d1 fe             	sar    rsi,1
  400ef1:	74 15                	je     400f08 <usleep@plt+0x268>
  400ef3:	b8 00 00 00 00       	mov    eax,0x0
  400ef8:	48 85 c0             	test   rax,rax
  400efb:	74 0b                	je     400f08 <usleep@plt+0x268>
  400efd:	5d                   	pop    rbp
  400efe:	bf 00 31 60 00       	mov    edi,0x603100
  400f03:	ff e0                	jmp    rax
  400f05:	0f 1f 00             	nop    DWORD PTR [rax]
  400f08:	5d                   	pop    rbp
  400f09:	c3                   	ret    
  400f0a:	66 0f 1f 44 00 00    	nop    WORD PTR [rax+rax*1+0x0]
  400f10:	80 3d 11 22 20 00 00 	cmp    BYTE PTR [rip+0x202211],0x0        # 603128 <stderr@@GLIBC_2.2.5+0x8>
  400f17:	75 17                	jne    400f30 <usleep@plt+0x290>
  400f19:	55                   	push   rbp
  400f1a:	48 89 e5             	mov    rbp,rsp
  400f1d:	e8 7e ff ff ff       	call   400ea0 <usleep@plt+0x200>
  400f22:	c6 05 ff 21 20 00 01 	mov    BYTE PTR [rip+0x2021ff],0x1        # 603128 <stderr@@GLIBC_2.2.5+0x8>
  400f29:	5d                   	pop    rbp
  400f2a:	c3                   	ret    
  400f2b:	0f 1f 44 00 00       	nop    DWORD PTR [rax+rax*1+0x0]
  400f30:	f3 c3                	repz ret 
  400f32:	0f 1f 40 00          	nop    DWORD PTR [rax+0x0]
  400f36:	66 2e 0f 1f 84 00 00 	nop    WORD PTR cs:[rax+rax*1+0x0]
  400f3d:	00 00 00 
  400f40:	55                   	push   rbp
  400f41:	48 89 e5             	mov    rbp,rsp
  400f44:	5d                   	pop    rbp
  400f45:	eb 89                	jmp    400ed0 <usleep@plt+0x230>
  400f47:	66 0f 1f 84 00 00 00 	nop    WORD PTR [rax+rax*1+0x0]
  400f4e:	00 00 
  400f50:	48 83 ec 08          	sub    rsp,0x8
  400f54:	be 10 20 40 00       	mov    esi,0x402010
  400f59:	bf 01 00 00 00       	mov    edi,0x1
  400f5e:	31 c0                	xor    eax,eax
  400f60:	e8 cb fc ff ff       	call   400c30 <__printf_chk@plt>
  400f65:	bf 03 00 00 00       	mov    edi,0x3
  400f6a:	e8 11 fd ff ff       	call   400c80 <sleep@plt>
  400f6f:	be 77 23 40 00       	mov    esi,0x402377
  400f74:	bf 01 00 00 00       	mov    edi,0x1
  400f79:	31 c0                	xor    eax,eax
  400f7b:	e8 b0 fc ff ff       	call   400c30 <__printf_chk@plt>
  400f80:	48 8b 3d 79 21 20 00 	mov    rdi,QWORD PTR [rip+0x202179]        # 603100 <stdout@@GLIBC_2.2.5>
  400f87:	e8 84 fc ff ff       	call   400c10 <fflush@plt>
  400f8c:	bf 01 00 00 00       	mov    edi,0x1
  400f91:	e8 ea fc ff ff       	call   400c80 <sleep@plt>
  400f96:	bf 01 00 00 00       	mov    edi,0x1
  400f9b:	be 7f 23 40 00       	mov    esi,0x40237f
  400fa0:	31 c0                	xor    eax,eax
  400fa2:	e8 89 fc ff ff       	call   400c30 <__printf_chk@plt>
  400fa7:	bf 10 00 00 00       	mov    edi,0x10
  400fac:	e8 af fc ff ff       	call   400c60 <exit@plt>
  400fb1:	0f 1f 44 00 00       	nop    DWORD PTR [rax+rax*1+0x0]
  400fb6:	66 2e 0f 1f 84 00 00 	nop    WORD PTR cs:[rax+rax*1+0x0]
  400fbd:	00 00 00 
  400fc0:	48 81 ec 18 08 00 00 	sub    rsp,0x818
  400fc7:	ba 90 23 40 00       	mov    edx,0x402390
  400fcc:	41 b9 88 23 40 00    	mov    r9d,0x402388
  400fd2:	64 48 8b 04 25 28 00 	mov    rax,QWORD PTR fs:0x28
  400fd9:	00 00 
  400fdb:	48 89 84 24 08 08 00 	mov    QWORD PTR [rsp+0x808],rax
  400fe2:	00 
  400fe3:	31 c0                	xor    eax,eax
  400fe5:	8b 05 45 21 20 00    	mov    eax,DWORD PTR [rip+0x202145]        # 603130 <stderr@@GLIBC_2.2.5+0x10>
  400feb:	41 b8 99 23 40 00    	mov    r8d,0x402399
  400ff1:	b9 00 08 00 00       	mov    ecx,0x800
  400ff6:	be 00 08 00 00       	mov    esi,0x800
  400ffb:	83 e8 01             	sub    eax,0x1
  400ffe:	48 98                	cdqe   
  401000:	48 c1 e0 0a          	shl    rax,0xa
  401004:	48 05 40 31 60 00    	add    rax,0x603140
  40100a:	85 ff                	test   edi,edi
  40100c:	50                   	push   rax
  40100d:	8b 05 19 21 20 00    	mov    eax,DWORD PTR [rip+0x202119]        # 60312c <stderr@@GLIBC_2.2.5+0xc>
  401013:	4c 0f 44 ca          	cmove  r9,rdx
  401017:	ba 01 00 00 00       	mov    edx,0x1
  40101c:	50                   	push   rax
  40101d:	31 c0                	xor    eax,eax
  40101f:	48 8d 7c 24 10       	lea    rdi,[rsp+0x10]
  401024:	e8 e7 fa ff ff       	call   400b10 <__snprintf_chk@plt>
  401029:	48 8d 7c 24 10       	lea    rdi,[rsp+0x10]
  40102e:	e8 3d 0c 00 00       	call   401c70 <usleep@plt+0xfd0>
  401033:	58                   	pop    rax
  401034:	5a                   	pop    rdx
  401035:	48 8b 84 24 08 08 00 	mov    rax,QWORD PTR [rsp+0x808]
  40103c:	00 
  40103d:	64 48 33 04 25 28 00 	xor    rax,QWORD PTR fs:0x28
  401044:	00 00 
  401046:	75 08                	jne    401050 <usleep@plt+0x3b0>
  401048:	48 81 c4 18 08 00 00 	add    rsp,0x818
  40104f:	c3                   	ret    
  401050:	e8 1b fb ff ff       	call   400b70 <__stack_chk_fail@plt>
  401055:	90                   	nop
  401056:	66 2e 0f 1f 84 00 00 	nop    WORD PTR cs:[rax+rax*1+0x0]
  40105d:	00 00 00 
  401060:	80 3f 00             	cmp    BYTE PTR [rdi],0x0
  401063:	74 1b                	je     401080 <usleep@plt+0x3e0>
  401065:	48 89 fa             	mov    rdx,rdi
  401068:	0f 1f 84 00 00 00 00 	nop    DWORD PTR [rax+rax*1+0x0]
  40106f:	00 
  401070:	48 83 c2 01          	add    rdx,0x1
  401074:	89 d0                	mov    eax,edx
  401076:	29 f8                	sub    eax,edi
  401078:	80 3a 00             	cmp    BYTE PTR [rdx],0x0
  40107b:	75 f3                	jne    401070 <usleep@plt+0x3d0>
  40107d:	f3 c3                	repz ret 
  40107f:	90                   	nop
  401080:	31 c0                	xor    eax,eax
  401082:	c3                   	ret    
  401083:	0f 1f 00             	nop    DWORD PTR [rax]
  401086:	66 2e 0f 1f 84 00 00 	nop    WORD PTR cs:[rax+rax*1+0x0]
  40108d:	00 00 00 
  401090:	44 0f b6 07          	movzx  r8d,BYTE PTR [rdi]
  401094:	44 0f b6 0e          	movzx  r9d,BYTE PTR [rsi]
  401098:	45 84 c0             	test   r8b,r8b
  40109b:	74 73                	je     401110 <usleep@plt+0x470>
  40109d:	48 89 f8             	mov    rax,rdi
  4010a0:	48 83 c0 01          	add    rax,0x1
  4010a4:	89 c2                	mov    edx,eax
  4010a6:	29 fa                	sub    edx,edi
  4010a8:	80 38 00             	cmp    BYTE PTR [rax],0x0
  4010ab:	75 f3                	jne    4010a0 <usleep@plt+0x400>
  4010ad:	45 84 c9             	test   r9b,r9b
  4010b0:	74 4e                	je     401100 <usleep@plt+0x460>
  4010b2:	48 89 f0             	mov    rax,rsi
  4010b5:	0f 1f 00             	nop    DWORD PTR [rax]
  4010b8:	48 83 c0 01          	add    rax,0x1
  4010bc:	89 c1                	mov    ecx,eax
  4010be:	29 f1                	sub    ecx,esi
  4010c0:	80 38 00             	cmp    BYTE PTR [rax],0x0
  4010c3:	75 f3                	jne    4010b8 <usleep@plt+0x418>
  4010c5:	39 d1                	cmp    ecx,edx
  4010c7:	b8 01 00 00 00       	mov    eax,0x1
  4010cc:	74 02                	je     4010d0 <usleep@plt+0x430>
  4010ce:	f3 c3                	repz ret 
  4010d0:	45 84 c0             	test   r8b,r8b
  4010d3:	74 1e                	je     4010f3 <usleep@plt+0x453>
  4010d5:	45 38 c1             	cmp    r9b,r8b
  4010d8:	74 0a                	je     4010e4 <usleep@plt+0x444>
  4010da:	eb 3f                	jmp    40111b <usleep@plt+0x47b>
  4010dc:	0f 1f 40 00          	nop    DWORD PTR [rax+0x0]
  4010e0:	38 06                	cmp    BYTE PTR [rsi],al
  4010e2:	75 1c                	jne    401100 <usleep@plt+0x460>
  4010e4:	48 83 c7 01          	add    rdi,0x1
  4010e8:	0f b6 07             	movzx  eax,BYTE PTR [rdi]
  4010eb:	48 83 c6 01          	add    rsi,0x1
  4010ef:	84 c0                	test   al,al
  4010f1:	75 ed                	jne    4010e0 <usleep@plt+0x440>
  4010f3:	31 c0                	xor    eax,eax
  4010f5:	f3 c3                	repz ret 
  4010f7:	66 0f 1f 84 00 00 00 	nop    WORD PTR [rax+rax*1+0x0]
  4010fe:	00 00 
  401100:	b8 01 00 00 00       	mov    eax,0x1
  401105:	c3                   	ret    
  401106:	66 2e 0f 1f 84 00 00 	nop    WORD PTR cs:[rax+rax*1+0x0]
  40110d:	00 00 00 
  401110:	31 d2                	xor    edx,edx
  401112:	45 84 c9             	test   r9b,r9b
  401115:	75 9b                	jne    4010b2 <usleep@plt+0x412>
  401117:	31 c0                	xor    eax,eax
  401119:	eb da                	jmp    4010f5 <usleep@plt+0x455>
  40111b:	c3                   	ret    
  40111c:	0f 1f 40 00          	nop    DWORD PTR [rax+0x0]
  401120:	44 0f b6 07          	movzx  r8d,BYTE PTR [rdi]
  401124:	44 0f b6 0e          	movzx  r9d,BYTE PTR [rsi]
  401128:	45 84 c0             	test   r8b,r8b
  40112b:	74 63                	je     401190 <usleep@plt+0x4f0>
  40112d:	48 89 fa             	mov    rdx,rdi
  401130:	48 83 c2 01          	add    rdx,0x1
  401134:	89 d0                	mov    eax,edx
  401136:	29 f8                	sub    eax,edi
  401138:	80 3a 00             	cmp    BYTE PTR [rdx],0x0
  40113b:	75 f3                	jne    401130 <usleep@plt+0x490>
  40113d:	45 84 c9             	test   r9b,r9b
  401140:	74 5e                	je     4011a0 <usleep@plt+0x500>
  401142:	48 89 f2             	mov    rdx,rsi
  401145:	0f 1f 00             	nop    DWORD PTR [rax]
  401148:	48 83 c2 01          	add    rdx,0x1
  40114c:	89 d1                	mov    ecx,edx
  40114e:	29 f1                	sub    ecx,esi
  401150:	80 3a 00             	cmp    BYTE PTR [rdx],0x0
  401153:	75 f3                	jne    401148 <usleep@plt+0x4a8>
  401155:	39 c1                	cmp    ecx,eax
  401157:	74 2f                	je     401188 <usleep@plt+0x4e8>
  401159:	45 84 c0             	test   r8b,r8b
  40115c:	74 1d                	je     40117b <usleep@plt+0x4db>
  40115e:	45 38 c1             	cmp    r9b,r8b
  401161:	74 09                	je     40116c <usleep@plt+0x4cc>
  401163:	eb 16                	jmp    40117b <usleep@plt+0x4db>
  401165:	0f 1f 00             	nop    DWORD PTR [rax]
  401168:	38 06                	cmp    BYTE PTR [rsi],al
  40116a:	75 0f                	jne    40117b <usleep@plt+0x4db>
  40116c:	48 83 c7 01          	add    rdi,0x1
  401170:	0f b6 07             	movzx  eax,BYTE PTR [rdi]
  401173:	48 83 c6 01          	add    rsi,0x1
  401177:	84 c0                	test   al,al
  401179:	75 ed                	jne    401168 <usleep@plt+0x4c8>
  40117b:	b8 01 00 00 00       	mov    eax,0x1
  401180:	c3                   	ret    
  401181:	0f 1f 80 00 00 00 00 	nop    DWORD PTR [rax+0x0]
  401188:	31 c0                	xor    eax,eax
  40118a:	c3                   	ret    
  40118b:	0f 1f 44 00 00       	nop    DWORD PTR [rax+rax*1+0x0]
  401190:	31 c0                	xor    eax,eax
  401192:	45 84 c9             	test   r9b,r9b
  401195:	75 ab                	jne    401142 <usleep@plt+0x4a2>
  401197:	f3 c3                	repz ret 
  401199:	0f 1f 80 00 00 00 00 	nop    DWORD PTR [rax+0x0]
  4011a0:	85 c0                	test   eax,eax
  4011a2:	75 ba                	jne    40115e <usleep@plt+0x4be>
  4011a4:	f3 c3                	repz ret 
  4011a6:	66 2e 0f 1f 84 00 00 	nop    WORD PTR cs:[rax+rax*1+0x0]
  4011ad:	00 00 00 
  4011b0:	48 83 ec 08          	sub    rsp,0x8
  4011b4:	bf 02 00 00 00       	mov    edi,0x2
  4011b9:	be 50 0f 40 00       	mov    esi,0x400f50
  4011be:	e8 2d fa ff ff       	call   400bf0 <__sysv_signal@plt>
  4011c3:	bf a7 23 40 00       	mov    edi,0x4023a7
  4011c8:	48 83 c4 08          	add    rsp,0x8
  4011cc:	e9 9f 0a 00 00       	jmp    401c70 <usleep@plt+0xfd0>
  4011d1:	0f 1f 44 00 00       	nop    DWORD PTR [rax+rax*1+0x0]
  4011d6:	66 2e 0f 1f 84 00 00 	nop    WORD PTR cs:[rax+rax*1+0x0]
  4011dd:	00 00 00 
  4011e0:	55                   	push   rbp
  4011e1:	53                   	push   rbx
  4011e2:	48 89 fd             	mov    rbp,rdi
  4011e5:	48 83 ec 08          	sub    rsp,0x8
  4011e9:	eb 18                	jmp    401203 <usleep@plt+0x563>
  4011eb:	0f 1f 44 00 00       	nop    DWORD PTR [rax+rax*1+0x0]
  4011f0:	e8 9b fa ff ff       	call   400c90 <__ctype_b_loc@plt>
  4011f5:	48 8b 00             	mov    rax,QWORD PTR [rax]
  4011f8:	48 83 c5 01          	add    rbp,0x1
  4011fc:	f6 44 58 01 20       	test   BYTE PTR [rax+rbx*2+0x1],0x20
  401201:	74 1d                	je     401220 <usleep@plt+0x580>
  401203:	48 0f be 5d 00       	movsx  rbx,BYTE PTR [rbp+0x0]
  401208:	84 db                	test   bl,bl
  40120a:	75 e4                	jne    4011f0 <usleep@plt+0x550>
  40120c:	48 83 c4 08          	add    rsp,0x8
  401210:	b8 01 00 00 00       	mov    eax,0x1
  401215:	5b                   	pop    rbx
  401216:	5d                   	pop    rbp
  401217:	c3                   	ret    
  401218:	0f 1f 84 00 00 00 00 	nop    DWORD PTR [rax+rax*1+0x0]
  40121f:	00 
  401220:	48 83 c4 08          	add    rsp,0x8
  401224:	31 c0                	xor    eax,eax
  401226:	5b                   	pop    rbx
  401227:	5d                   	pop    rbp
  401228:	c3                   	ret    
  401229:	0f 1f 80 00 00 00 00 	nop    DWORD PTR [rax+0x0]
  401230:	53                   	push   rbx
  401231:	eb 11                	jmp    401244 <usleep@plt+0x5a4>
  401233:	0f 1f 44 00 00       	nop    DWORD PTR [rax+rax*1+0x0]
  401238:	48 89 c7             	mov    rdi,rax
  40123b:	e8 a0 ff ff ff       	call   4011e0 <usleep@plt+0x540>
  401240:	85 c0                	test   eax,eax
  401242:	74 2b                	je     40126f <usleep@plt+0x5cf>
  401244:	48 63 3d e5 1e 20 00 	movsxd rdi,DWORD PTR [rip+0x201ee5]        # 603130 <stderr@@GLIBC_2.2.5+0x10>
  40124b:	48 8b 15 e6 1e 20 00 	mov    rdx,QWORD PTR [rip+0x201ee6]        # 603138 <stderr@@GLIBC_2.2.5+0x18>
  401252:	be 00 04 00 00       	mov    esi,0x400
  401257:	48 c1 e7 0a          	shl    rdi,0xa
  40125b:	48 81 c7 40 31 60 00 	add    rdi,0x603140
  401262:	e8 49 f9 ff ff       	call   400bb0 <fgets@plt>
  401267:	48 85 c0             	test   rax,rax
  40126a:	48 89 c3             	mov    rbx,rax
  40126d:	75 c9                	jne    401238 <usleep@plt+0x598>
  40126f:	48 89 d8             	mov    rax,rbx
  401272:	5b                   	pop    rbx
  401273:	c3                   	ret    
  401274:	66 90                	xchg   ax,ax
  401276:	66 2e 0f 1f 84 00 00 	nop    WORD PTR cs:[rax+rax*1+0x0]
  40127d:	00 00 00 
  401280:	48 83 ec 08          	sub    rsp,0x8
  401284:	ba 50 20 40 00       	mov    edx,0x402050
  401289:	be b1 23 40 00       	mov    esi,0x4023b1
  40128e:	bf 01 00 00 00       	mov    edi,0x1
  401293:	31 c0                	xor    eax,eax
  401295:	e8 96 f9 ff ff       	call   400c30 <__printf_chk@plt>
  40129a:	be 10 23 40 00       	mov    esi,0x402310
  40129f:	bf 01 00 00 00       	mov    edi,0x1
  4012a4:	31 c0                	xor    eax,eax
  4012a6:	e8 85 f9 ff ff       	call   400c30 <__printf_chk@plt>
  4012ab:	31 ff                	xor    edi,edi
  4012ad:	e8 0e fd ff ff       	call   400fc0 <usleep@plt+0x320>
  4012b2:	bf 01 00 00 00       	mov    edi,0x1
  4012b7:	be 30 23 40 00       	mov    esi,0x402330
  4012bc:	31 c0                	xor    eax,eax
  4012be:	e8 6d f9 ff ff       	call   400c30 <__printf_chk@plt>
  4012c3:	bf 08 00 00 00       	mov    edi,0x8
  4012c8:	e8 93 f9 ff ff       	call   400c60 <exit@plt>
  4012cd:	0f 1f 00             	nop    DWORD PTR [rax]
  4012d0:	48 8d 46 14          	lea    rax,[rsi+0x14]
  4012d4:	48 83 ec 08          	sub    rsp,0x8
  4012d8:	48 8d 4e 04          	lea    rcx,[rsi+0x4]
  4012dc:	4c 8d 4e 0c          	lea    r9,[rsi+0xc]
  4012e0:	4c 8d 46 08          	lea    r8,[rsi+0x8]
  4012e4:	48 89 f2             	mov    rdx,rsi
  4012e7:	50                   	push   rax
  4012e8:	48 8d 46 10          	lea    rax,[rsi+0x10]
  4012ec:	be b6 23 40 00       	mov    esi,0x4023b6
  4012f1:	50                   	push   rax
  4012f2:	31 c0                	xor    eax,eax
  4012f4:	e8 27 f9 ff ff       	call   400c20 <__isoc99_sscanf@plt>
  4012f9:	83 f8 05             	cmp    eax,0x5
  4012fc:	5a                   	pop    rdx
  4012fd:	59                   	pop    rcx
  4012fe:	7e 05                	jle    401305 <usleep@plt+0x665>
  401300:	48 83 c4 08          	add    rsp,0x8
  401304:	c3                   	ret    
  401305:	e8 76 ff ff ff       	call   401280 <usleep@plt+0x5e0>
  40130a:	66 0f 1f 44 00 00    	nop    WORD PTR [rax+rax*1+0x0]
  401310:	48 83 ec 08          	sub    rsp,0x8
  401314:	31 c0                	xor    eax,eax
  401316:	e8 15 ff ff ff       	call   401230 <usleep@plt+0x590>
  40131b:	48 85 c0             	test   rax,rax
  40131e:	0f 84 8c 00 00 00    	je     4013b0 <usleep@plt+0x710>
  401324:	48 63 3d 05 1e 20 00 	movsxd rdi,DWORD PTR [rip+0x201e05]        # 603130 <stderr@@GLIBC_2.2.5+0x10>
  40132b:	48 89 f8             	mov    rax,rdi
  40132e:	48 89 fe             	mov    rsi,rdi
  401331:	48 c1 e0 0a          	shl    rax,0xa
  401335:	48 05 40 31 60 00    	add    rax,0x603140
  40133b:	48 89 c2             	mov    rdx,rax
  40133e:	44 8b 02             	mov    r8d,DWORD PTR [rdx]
  401341:	48 83 c2 04          	add    rdx,0x4
  401345:	41 8d 88 ff fe fe fe 	lea    ecx,[r8-0x1010101]
  40134c:	41 f7 d0             	not    r8d
  40134f:	44 21 c1             	and    ecx,r8d
  401352:	81 e1 80 80 80 80    	and    ecx,0x80808080
  401358:	74 e4                	je     40133e <usleep@plt+0x69e>
  40135a:	41 89 c8             	mov    r8d,ecx
  40135d:	41 c1 e8 10          	shr    r8d,0x10
  401361:	f7 c1 80 80 00 00    	test   ecx,0x8080
  401367:	41 0f 44 c8          	cmove  ecx,r8d
  40136b:	4c 8d 42 02          	lea    r8,[rdx+0x2]
  40136f:	41 89 c9             	mov    r9d,ecx
  401372:	49 0f 44 d0          	cmove  rdx,r8
  401376:	41 00 c9             	add    r9b,cl
  401379:	48 83 da 03          	sbb    rdx,0x3
  40137d:	48 29 c2             	sub    rdx,rax
  401380:	81 fa fe 03 00 00    	cmp    edx,0x3fe
  401386:	0f 8f 83 00 00 00    	jg     40140f <usleep@plt+0x76f>
  40138c:	83 ea 01             	sub    edx,0x1
  40138f:	48 c1 e7 0a          	shl    rdi,0xa
  401393:	83 c6 01             	add    esi,0x1
  401396:	48 63 d2             	movsxd rdx,edx
  401399:	89 35 91 1d 20 00    	mov    DWORD PTR [rip+0x201d91],esi        # 603130 <stderr@@GLIBC_2.2.5+0x10>
  40139f:	c6 84 3a 40 31 60 00 	mov    BYTE PTR [rdx+rdi*1+0x603140],0x0
  4013a6:	00 
  4013a7:	48 83 c4 08          	add    rsp,0x8
  4013ab:	c3                   	ret    
  4013ac:	0f 1f 40 00          	nop    DWORD PTR [rax+0x0]
  4013b0:	48 8b 05 59 1d 20 00 	mov    rax,QWORD PTR [rip+0x201d59]        # 603110 <stdin@@GLIBC_2.2.5>
  4013b7:	48 39 05 7a 1d 20 00 	cmp    QWORD PTR [rip+0x201d7a],rax        # 603138 <stderr@@GLIBC_2.2.5+0x18>
  4013be:	0f 84 84 00 00 00    	je     401448 <usleep@plt+0x7a8>
  4013c4:	bf c8 23 40 00       	mov    edi,0x4023c8
  4013c9:	e8 32 f7 ff ff       	call   400b00 <getenv@plt>
  4013ce:	48 85 c0             	test   rax,rax
  4013d1:	74 0d                	je     4013e0 <usleep@plt+0x740>
  4013d3:	31 ff                	xor    edi,edi
  4013d5:	e8 86 f8 ff ff       	call   400c60 <exit@plt>
  4013da:	66 0f 1f 44 00 00    	nop    WORD PTR [rax+rax*1+0x0]
  4013e0:	48 8b 05 29 1d 20 00 	mov    rax,QWORD PTR [rip+0x201d29]        # 603110 <stdin@@GLIBC_2.2.5>
  4013e7:	48 89 05 4a 1d 20 00 	mov    QWORD PTR [rip+0x201d4a],rax        # 603138 <stderr@@GLIBC_2.2.5+0x18>
  4013ee:	31 c0                	xor    eax,eax
  4013f0:	e8 3b fe ff ff       	call   401230 <usleep@plt+0x590>
  4013f5:	48 85 c0             	test   rax,rax
  4013f8:	0f 85 26 ff ff ff    	jne    401324 <usleep@plt+0x684>
  4013fe:	be 58 23 40 00       	mov    esi,0x402358
  401403:	bf 01 00 00 00       	mov    edi,0x1
  401408:	e8 23 f8 ff ff       	call   400c30 <__printf_chk@plt>
  40140d:	eb c4                	jmp    4013d3 <usleep@plt+0x733>
  40140f:	be d3 23 40 00       	mov    esi,0x4023d3
  401414:	bf 01 00 00 00       	mov    edi,0x1
  401419:	31 c0                	xor    eax,eax
  40141b:	e8 10 f8 ff ff       	call   400c30 <__printf_chk@plt>
  401420:	48 63 05 09 1d 20 00 	movsxd rax,DWORD PTR [rip+0x201d09]        # 603130 <stderr@@GLIBC_2.2.5+0x10>
  401427:	66 0f 6f 05 c1 0f 00 	movdqa xmm0,XMMWORD PTR [rip+0xfc1]        # 4023f0 <usleep@plt+0x1750>
  40142e:	00 
  40142f:	8d 50 01             	lea    edx,[rax+0x1]
  401432:	48 c1 e0 0a          	shl    rax,0xa
  401436:	0f 29 80 40 31 60 00 	movaps XMMWORD PTR [rax+0x603140],xmm0
  40143d:	89 15 ed 1c 20 00    	mov    DWORD PTR [rip+0x201ced],edx        # 603130 <stderr@@GLIBC_2.2.5+0x10>
  401443:	e8 38 fe ff ff       	call   401280 <usleep@plt+0x5e0>
  401448:	bf 01 00 00 00       	mov    edi,0x1
  40144d:	be 58 23 40 00       	mov    esi,0x402358
  401452:	31 c0                	xor    eax,eax
  401454:	e8 d7 f7 ff ff       	call   400c30 <__printf_chk@plt>
  401459:	bf 08 00 00 00       	mov    edi,0x8
  40145e:	e8 fd f7 ff ff       	call   400c60 <exit@plt>
  401463:	0f 1f 00             	nop    DWORD PTR [rax]
  401466:	66 2e 0f 1f 84 00 00 	nop    WORD PTR cs:[rax+rax*1+0x0]
  40146d:	00 00 00 
  401470:	bf 01 00 00 00       	mov    edi,0x1
  401475:	e9 46 fb ff ff       	jmp    400fc0 <usleep@plt+0x320>
  40147a:	66 0f 1f 44 00 00    	nop    WORD PTR [rax+rax*1+0x0]
  401480:	48 83 ec 08          	sub    rsp,0x8
  401484:	8b 15 aa 1c 20 00    	mov    edx,DWORD PTR [rip+0x201caa]        # 603134 <stderr@@GLIBC_2.2.5+0x14>
  40148a:	85 d2                	test   edx,edx
  40148c:	74 17                	je     4014a5 <usleep@plt+0x805>
  40148e:	be 00 24 40 00       	mov    esi,0x402400
  401493:	bf 01 00 00 00       	mov    edi,0x1
  401498:	31 c0                	xor    eax,eax
  40149a:	e8 91 f7 ff ff       	call   400c30 <__printf_chk@plt>
  40149f:	8b 15 8f 1c 20 00    	mov    edx,DWORD PTR [rip+0x201c8f]        # 603134 <stderr@@GLIBC_2.2.5+0x14>
  4014a5:	83 c2 02             	add    edx,0x2
  4014a8:	be 05 24 40 00       	mov    esi,0x402405
  4014ad:	bf 01 00 00 00       	mov    edi,0x1
  4014b2:	31 c0                	xor    eax,eax
  4014b4:	89 15 7a 1c 20 00    	mov    DWORD PTR [rip+0x201c7a],edx        # 603134 <stderr@@GLIBC_2.2.5+0x14>
  4014ba:	e8 71 f7 ff ff       	call   400c30 <__printf_chk@plt>
  4014bf:	48 8b 3d 3a 1c 20 00 	mov    rdi,QWORD PTR [rip+0x201c3a]        # 603100 <stdout@@GLIBC_2.2.5>
  4014c6:	e8 45 f7 ff ff       	call   400c10 <fflush@plt>
  4014cb:	bf a0 86 01 00       	mov    edi,0x186a0
  4014d0:	48 83 c4 08          	add    rsp,0x8
  4014d4:	e9 c7 f7 ff ff       	jmp    400ca0 <usleep@plt>
  4014d9:	0f 1f 80 00 00 00 00 	nop    DWORD PTR [rax+0x0]
  4014e0:	55                   	push   rbp
  4014e1:	53                   	push   rbx
  4014e2:	be 22 00 00 00       	mov    esi,0x22
  4014e7:	48 89 fb             	mov    rbx,rdi
  4014ea:	48 81 ec 18 0c 00 00 	sub    rsp,0xc18
  4014f1:	64 48 8b 04 25 28 00 	mov    rax,QWORD PTR fs:0x28
  4014f8:	00 00 
  4014fa:	48 89 84 24 08 0c 00 	mov    QWORD PTR [rsp+0xc08],rax
  401501:	00 
  401502:	31 c0                	xor    eax,eax
  401504:	e8 77 f6 ff ff       	call   400b80 <strchr@plt>
  401509:	48 85 c0             	test   rax,rax
  40150c:	0f 85 f5 00 00 00    	jne    401607 <usleep@plt+0x967>
  401512:	be 27 00 00 00       	mov    esi,0x27
  401517:	48 89 df             	mov    rdi,rbx
  40151a:	e8 61 f6 ff ff       	call   400b80 <strchr@plt>
  40151f:	48 85 c0             	test   rax,rax
  401522:	0f 85 df 00 00 00    	jne    401607 <usleep@plt+0x967>
  401528:	48 83 ec 08          	sub    rsp,0x8
  40152c:	ba 01 00 00 00       	mov    edx,0x1
  401531:	41 b9 40 85 60 00    	mov    r9d,0x608540
  401537:	53                   	push   rbx
  401538:	41 b8 2c 24 40 00    	mov    r8d,0x40242c
  40153e:	b9 00 08 00 00       	mov    ecx,0x800
  401543:	be 00 08 00 00       	mov    esi,0x800
  401548:	31 c0                	xor    eax,eax
  40154a:	48 8d bc 24 10 04 00 	lea    rdi,[rsp+0x410]
  401551:	00 
  401552:	e8 b9 f5 ff ff       	call   400b10 <__snprintf_chk@plt>
  401557:	be 4a 24 40 00       	mov    esi,0x40244a
  40155c:	bf 4d 24 40 00       	mov    edi,0x40244d
  401561:	e8 ea f6 ff ff       	call   400c50 <fopen@plt>
  401566:	48 89 c5             	mov    rbp,rax
  401569:	48 85 ed             	test   rbp,rbp
  40156c:	58                   	pop    rax
  40156d:	5a                   	pop    rdx
  40156e:	0f 84 a9 00 00 00    	je     40161d <usleep@plt+0x97d>
  401574:	48 8d bc 24 00 04 00 	lea    rdi,[rsp+0x400]
  40157b:	00 
  40157c:	48 89 ee             	mov    rsi,rbp
  40157f:	e8 1c f6 ff ff       	call   400ba0 <fputs@plt>
  401584:	be 58 24 40 00       	mov    esi,0x402458
  401589:	bf 01 00 00 00       	mov    edi,0x1
  40158e:	31 c0                	xor    eax,eax
  401590:	e8 9b f6 ff ff       	call   400c30 <__printf_chk@plt>
  401595:	0f 1f 00             	nop    DWORD PTR [rax]
  401598:	48 89 e9             	mov    rcx,rbp
  40159b:	ba ff 03 00 00       	mov    edx,0x3ff
  4015a0:	be 01 00 00 00       	mov    esi,0x1
  4015a5:	48 89 e7             	mov    rdi,rsp
  4015a8:	e8 93 f5 ff ff       	call   400b40 <fread@plt>
  4015ad:	48 89 e2             	mov    rdx,rsp
  4015b0:	48 89 c3             	mov    rbx,rax
  4015b3:	c6 04 04 00          	mov    BYTE PTR [rsp+rax*1],0x0
  4015b7:	be 44 26 40 00       	mov    esi,0x402644
  4015bc:	31 c0                	xor    eax,eax
  4015be:	bf 01 00 00 00       	mov    edi,0x1
  4015c3:	e8 68 f6 ff ff       	call   400c30 <__printf_chk@plt>
  4015c8:	48 81 fb fe 03 00 00 	cmp    rbx,0x3fe
  4015cf:	77 c7                	ja     401598 <usleep@plt+0x8f8>
  4015d1:	be 6b 24 40 00       	mov    esi,0x40246b
  4015d6:	bf 01 00 00 00       	mov    edi,0x1
  4015db:	31 c0                	xor    eax,eax
  4015dd:	e8 4e f6 ff ff       	call   400c30 <__printf_chk@plt>
  4015e2:	48 89 ef             	mov    rdi,rbp
  4015e5:	e8 66 f5 ff ff       	call   400b50 <fclose@plt>
  4015ea:	48 8b 84 24 08 0c 00 	mov    rax,QWORD PTR [rsp+0xc08]
  4015f1:	00 
  4015f2:	64 48 33 04 25 28 00 	xor    rax,QWORD PTR fs:0x28
  4015f9:	00 00 
  4015fb:	75 1b                	jne    401618 <usleep@plt+0x978>
  4015fd:	48 81 c4 18 0c 00 00 	add    rsp,0xc18
  401604:	5b                   	pop    rbx
  401605:	5d                   	pop    rbp
  401606:	c3                   	ret    
  401607:	be 0e 24 40 00       	mov    esi,0x40240e
  40160c:	bf 01 00 00 00       	mov    edi,0x1
  401611:	31 c0                	xor    eax,eax
  401613:	e8 e8 f5 ff ff       	call   400c00 <err@plt>
  401618:	e8 53 f5 ff ff       	call   400b70 <__stack_chk_fail@plt>
  40161d:	be e0 24 40 00       	mov    esi,0x4024e0
  401622:	bf 01 00 00 00       	mov    edi,0x1
  401627:	31 c0                	xor    eax,eax
  401629:	e8 d2 f5 ff ff       	call   400c00 <err@plt>
  40162e:	66 90                	xchg   ax,ax
  401630:	53                   	push   rbx
  401631:	be 98 1d 40 00       	mov    esi,0x401d98
  401636:	bf 6d 24 40 00       	mov    edi,0x40246d
  40163b:	48 83 ec 20          	sub    rsp,0x20
  40163f:	64 48 8b 04 25 28 00 	mov    rax,QWORD PTR fs:0x28
  401646:	00 00 
  401648:	48 89 44 24 18       	mov    QWORD PTR [rsp+0x18],rax
  40164d:	31 c0                	xor    eax,eax
  40164f:	e8 fc f5 ff ff       	call   400c50 <fopen@plt>
  401654:	48 85 c0             	test   rax,rax
  401657:	48 89 c3             	mov    rbx,rax
  40165a:	0f 84 a0 00 00 00    	je     401700 <usleep@plt+0xa60>
  401660:	48 c7 44 24 08 00 00 	mov    QWORD PTR [rsp+0x8],0x0
  401667:	00 00 
  401669:	48 c7 44 24 10 00 00 	mov    QWORD PTR [rsp+0x10],0x0
  401670:	00 00 
  401672:	eb 21                	jmp    401695 <usleep@plt+0x9f5>
  401674:	0f 1f 40 00          	nop    DWORD PTR [rax+0x0]
  401678:	48 8b 54 24 10       	mov    rdx,QWORD PTR [rsp+0x10]
  40167d:	bf 7f 24 40 00       	mov    edi,0x40247f
  401682:	b9 0e 00 00 00       	mov    ecx,0xe
  401687:	48 89 d6             	mov    rsi,rdx
  40168a:	f3 a6                	repz cmps BYTE PTR ds:[rsi],BYTE PTR es:[rdi]
  40168c:	0f 97 c0             	seta   al
  40168f:	1c 00                	sbb    al,0x0
  401691:	84 c0                	test   al,al
  401693:	74 27                	je     4016bc <usleep@plt+0xa1c>
  401695:	48 8d 74 24 08       	lea    rsi,[rsp+0x8]
  40169a:	48 8d 7c 24 10       	lea    rdi,[rsp+0x10]
  40169f:	48 89 d9             	mov    rcx,rbx
  4016a2:	ba 0a 00 00 00       	mov    edx,0xa
  4016a7:	e8 14 f5 ff ff       	call   400bc0 <__getdelim@plt>
  4016ac:	48 83 f8 ff          	cmp    rax,0xffffffffffffffff
  4016b0:	75 c6                	jne    401678 <usleep@plt+0x9d8>
  4016b2:	e8 c9 fb ff ff       	call   401280 <usleep@plt+0x5e0>
  4016b7:	48 8b 54 24 10       	mov    rdx,QWORD PTR [rsp+0x10]
  4016bc:	48 89 d7             	mov    rdi,rdx
  4016bf:	e8 5c f4 ff ff       	call   400b20 <free@plt>
  4016c4:	48 89 df             	mov    rdi,rbx
  4016c7:	e8 84 f4 ff ff       	call   400b50 <fclose@plt>
  4016cc:	be 10 25 40 00       	mov    esi,0x402510
  4016d1:	bf 01 00 00 00       	mov    edi,0x1
  4016d6:	31 c0                	xor    eax,eax
  4016d8:	e8 53 f5 ff ff       	call   400c30 <__printf_chk@plt>
  4016dd:	bf 8d 24 40 00       	mov    edi,0x40248d
  4016e2:	e8 f9 fd ff ff       	call   4014e0 <usleep@plt+0x840>
  4016e7:	48 8b 44 24 18       	mov    rax,QWORD PTR [rsp+0x18]
  4016ec:	64 48 33 04 25 28 00 	xor    rax,QWORD PTR fs:0x28
  4016f3:	00 00 
  4016f5:	75 13                	jne    40170a <usleep@plt+0xa6a>
  4016f7:	48 83 c4 20          	add    rsp,0x20
  4016fb:	5b                   	pop    rbx
  4016fc:	c3                   	ret    
  4016fd:	0f 1f 00             	nop    DWORD PTR [rax]
  401700:	e8 7b fb ff ff       	call   401280 <usleep@plt+0x5e0>
  401705:	e9 56 ff ff ff       	jmp    401660 <usleep@plt+0x9c0>
  40170a:	e8 61 f4 ff ff       	call   400b70 <__stack_chk_fail@plt>
  40170f:	90                   	nop
  401710:	53                   	push   rbx
  401711:	48 89 fb             	mov    rbx,rdi
  401714:	48 83 ec 10          	sub    rsp,0x10
  401718:	64 48 8b 04 25 28 00 	mov    rax,QWORD PTR fs:0x28
  40171f:	00 00 
  401721:	48 89 44 24 08       	mov    QWORD PTR [rsp+0x8],rax
  401726:	31 c0                	xor    eax,eax
  401728:	e8 33 f9 ff ff       	call   401060 <usleep@plt+0x3c0>
  40172d:	83 f8 06             	cmp    eax,0x6
  401730:	75 66                	jne    401798 <usleep@plt+0xaf8>
  401732:	31 c0                	xor    eax,eax
  401734:	0f 1f 40 00          	nop    DWORD PTR [rax+0x0]
  401738:	0f b6 14 03          	movzx  edx,BYTE PTR [rbx+rax*1]
  40173c:	83 e2 0f             	and    edx,0xf
  40173f:	0f b6 92 e0 25 40 00 	movzx  edx,BYTE PTR [rdx+0x4025e0]
  401746:	88 54 04 01          	mov    BYTE PTR [rsp+rax*1+0x1],dl
  40174a:	48 83 c0 01          	add    rax,0x1
  40174e:	48 83 f8 06          	cmp    rax,0x6
  401752:	75 e4                	jne    401738 <usleep@plt+0xa98>
  401754:	48 8d 7c 24 01       	lea    rdi,[rsp+0x1]
  401759:	be 94 24 40 00       	mov    esi,0x402494
  40175e:	c6 44 24 07 00       	mov    BYTE PTR [rsp+0x7],0x0
  401763:	e8 28 f9 ff ff       	call   401090 <usleep@plt+0x3f0>
  401768:	85 c0                	test   eax,eax
  40176a:	74 05                	je     401771 <usleep@plt+0xad1>
  40176c:	e8 0f fb ff ff       	call   401280 <usleep@plt+0x5e0>
  401771:	bf 9b 24 40 00       	mov    edi,0x40249b
  401776:	e8 65 fd ff ff       	call   4014e0 <usleep@plt+0x840>
  40177b:	48 8b 44 24 08       	mov    rax,QWORD PTR [rsp+0x8]
  401780:	64 48 33 04 25 28 00 	xor    rax,QWORD PTR fs:0x28
  401787:	00 00 
  401789:	75 14                	jne    40179f <usleep@plt+0xaff>
  40178b:	48 83 c4 10          	add    rsp,0x10
  40178f:	5b                   	pop    rbx
  401790:	c3                   	ret    
  401791:	0f 1f 80 00 00 00 00 	nop    DWORD PTR [rax+0x0]
  401798:	e8 e3 fa ff ff       	call   401280 <usleep@plt+0x5e0>
  40179d:	eb 93                	jmp    401732 <usleep@plt+0xa92>
  40179f:	e8 cc f3 ff ff       	call   400b70 <__stack_chk_fail@plt>
  4017a4:	66 90                	xchg   ax,ax
  4017a6:	66 2e 0f 1f 84 00 00 	nop    WORD PTR cs:[rax+rax*1+0x0]
  4017ad:	00 00 00 
  4017b0:	eb 01                	jmp    4017b3 <usleep@plt+0xb13>
  4017b2:	e9 e9 58 ff ff       	jmp    3f70a0 <getenv@plt-0x9a60>
  4017b7:	ff 0f                	dec    DWORD PTR [rdi]
  4017b9:	1f                   	(bad)  
  4017ba:	84 00                	test   BYTE PTR [rax],al
  4017bc:	00 00                	add    BYTE PTR [rax],al
  4017be:	00 00                	add    BYTE PTR [rax],al
  4017c0:	55                   	push   rbp
  4017c1:	53                   	push   rbx
  4017c2:	48 89 fd             	mov    rbp,rdi
  4017c5:	be 80 14 40 00       	mov    esi,0x401480
  4017ca:	bf 05 00 00 00       	mov    edi,0x5
  4017cf:	48 83 ec 48          	sub    rsp,0x48
  4017d3:	48 89 e3             	mov    rbx,rsp
  4017d6:	64 48 8b 04 25 28 00 	mov    rax,QWORD PTR fs:0x28
  4017dd:	00 00 
  4017df:	48 89 44 24 38       	mov    QWORD PTR [rsp+0x38],rax
  4017e4:	31 c0                	xor    eax,eax
  4017e6:	e8 e5 f3 ff ff       	call   400bd0 <signal@plt>
  4017eb:	ba 32 00 00 00       	mov    edx,0x32
  4017f0:	48 89 ee             	mov    rsi,rbp
  4017f3:	48 89 df             	mov    rdi,rbx
  4017f6:	e8 35 f3 ff ff       	call   400b30 <strncpy@plt>
  4017fb:	be a8 24 40 00       	mov    esi,0x4024a8
  401800:	bf 01 00 00 00       	mov    edi,0x1
  401805:	31 c0                	xor    eax,eax
  401807:	e8 24 f4 ff ff       	call   400c30 <__printf_chk@plt>
  40180c:	48 8b 3d ed 18 20 00 	mov    rdi,QWORD PTR [rip+0x2018ed]        # 603100 <stdout@@GLIBC_2.2.5>
  401813:	e8 f8 f3 ff ff       	call   400c10 <fflush@plt>
  401818:	4c 8d 43 32          	lea    r8,[rbx+0x32]
  40181c:	48 89 de             	mov    rsi,rbx
  40181f:	bf b5 40 0b b4       	mov    edi,0xb40b40b5
  401824:	0f 1f 40 00          	nop    DWORD PTR [rax+0x0]
  401828:	0f be 0e             	movsx  ecx,BYTE PTR [rsi]
  40182b:	83 e9 1b             	sub    ecx,0x1b
  40182e:	89 c8                	mov    eax,ecx
  401830:	f7 ef                	imul   edi
  401832:	89 c8                	mov    eax,ecx
  401834:	c1 f8 1f             	sar    eax,0x1f
  401837:	01 ca                	add    edx,ecx
  401839:	c1 fa 06             	sar    edx,0x6
  40183c:	29 c2                	sub    edx,eax
  40183e:	6b d2 5b             	imul   edx,edx,0x5b
  401841:	29 d1                	sub    ecx,edx
  401843:	83 c1 20             	add    ecx,0x20
  401846:	88 0e                	mov    BYTE PTR [rsi],cl
  401848:	cc                   	int3   
  401849:	48 83 c6 01          	add    rsi,0x1
  40184d:	49 39 f0             	cmp    r8,rsi
  401850:	75 d6                	jne    401828 <usleep@plt+0xb88>
  401852:	31 c0                	xor    eax,eax
  401854:	be 6b 24 40 00       	mov    esi,0x40246b
  401859:	bf 01 00 00 00       	mov    edi,0x1
  40185e:	e8 cd f3 ff ff       	call   400c30 <__printf_chk@plt>
  401863:	83 3d ca 18 20 00 64 	cmp    DWORD PTR [rip+0x2018ca],0x64        # 603134 <stderr@@GLIBC_2.2.5+0x14>
  40186a:	74 05                	je     401871 <usleep@plt+0xbd1>
  40186c:	e8 0f fa ff ff       	call   401280 <usleep@plt+0x5e0>
  401871:	48 89 ef             	mov    rdi,rbp
  401874:	e8 e7 f2 ff ff       	call   400b60 <strlen@plt>
  401879:	ba 32 00 00 00       	mov    edx,0x32
  40187e:	48 83 f8 32          	cmp    rax,0x32
  401882:	bf b5 24 40 00       	mov    edi,0x4024b5
  401887:	48 0f 43 c2          	cmovae rax,rdx
  40188b:	b9 15 00 00 00       	mov    ecx,0x15
  401890:	48 89 de             	mov    rsi,rbx
  401893:	c6 04 04 00          	mov    BYTE PTR [rsp+rax*1],0x0
  401897:	f3 a6                	repz cmps BYTE PTR ds:[rsi],BYTE PTR es:[rdi]
  401899:	0f 97 c0             	seta   al
  40189c:	1c 00                	sbb    al,0x0
  40189e:	84 c0                	test   al,al
  4018a0:	74 05                	je     4018a7 <usleep@plt+0xc07>
  4018a2:	e8 d9 f9 ff ff       	call   401280 <usleep@plt+0x5e0>
  4018a7:	48 8b 44 24 38       	mov    rax,QWORD PTR [rsp+0x38]
  4018ac:	64 48 33 04 25 28 00 	xor    rax,QWORD PTR fs:0x28
  4018b3:	00 00 
  4018b5:	75 10                	jne    4018c7 <usleep@plt+0xc27>
  4018b7:	48 83 c4 48          	add    rsp,0x48
  4018bb:	bf 93 1d 40 00       	mov    edi,0x401d93
  4018c0:	5b                   	pop    rbx
  4018c1:	5d                   	pop    rbp
  4018c2:	e9 19 fc ff ff       	jmp    4014e0 <usleep@plt+0x840>
  4018c7:	e8 a4 f2 ff ff       	call   400b70 <__stack_chk_fail@plt>
  4018cc:	0f 1f 40 00          	nop    DWORD PTR [rax+0x0]
  4018d0:	41 54                	push   r12
  4018d2:	55                   	push   rbp
  4018d3:	48 89 fd             	mov    rbp,rdi
  4018d6:	53                   	push   rbx
  4018d7:	48 89 ef             	mov    rdi,rbp
  4018da:	31 db                	xor    ebx,ebx
  4018dc:	45 31 e4             	xor    r12d,r12d
  4018df:	48 83 ec 70          	sub    rsp,0x70
  4018e3:	66 0f 6f 05 05 0d 00 	movdqa xmm0,XMMWORD PTR [rip+0xd05]        # 4025f0 <usleep@plt+0x1950>
  4018ea:	00 
  4018eb:	64 48 8b 04 25 28 00 	mov    rax,QWORD PTR fs:0x28
  4018f2:	00 00 
  4018f4:	48 89 44 24 68       	mov    QWORD PTR [rsp+0x68],rax
  4018f9:	31 c0                	xor    eax,eax
  4018fb:	0f 29 04 24          	movaps XMMWORD PTR [rsp],xmm0
  4018ff:	c7 44 24 60 61 61 61 	mov    DWORD PTR [rsp+0x60],0x61616161
  401906:	61 
  401907:	0f 29 44 24 10       	movaps XMMWORD PTR [rsp+0x10],xmm0
  40190c:	0f 29 44 24 20       	movaps XMMWORD PTR [rsp+0x20],xmm0
  401911:	0f 29 44 24 30       	movaps XMMWORD PTR [rsp+0x30],xmm0
  401916:	0f 29 44 24 40       	movaps XMMWORD PTR [rsp+0x40],xmm0
  40191b:	0f 29 44 24 50       	movaps XMMWORD PTR [rsp+0x50],xmm0
  401920:	e8 3b f2 ff ff       	call   400b60 <strlen@plt>
  401925:	48 39 d8             	cmp    rax,rbx
  401928:	76 43                	jbe    40196d <usleep@plt+0xccd>
  40192a:	66 0f 1f 44 00 00    	nop    WORD PTR [rax+rax*1+0x0]
  401930:	41 83 fc 63          	cmp    r12d,0x63
  401934:	0f 87 de 00 00 00    	ja     401a18 <usleep@plt+0xd78>
  40193a:	0f b6 44 1d 00       	movzx  eax,BYTE PTR [rbp+rbx*1+0x0]
  40193f:	83 e8 2b             	sub    eax,0x2b
  401942:	3c 13                	cmp    al,0x13
  401944:	0f 87 b6 00 00 00    	ja     401a00 <usleep@plt+0xd60>
  40194a:	0f b6 c0             	movzx  eax,al
  40194d:	ff 24 c5 40 25 40 00 	jmp    QWORD PTR [rax*8+0x402540]
  401954:	0f 1f 40 00          	nop    DWORD PTR [rax+0x0]
  401958:	41 83 c4 01          	add    r12d,0x1
  40195c:	48 83 c3 01          	add    rbx,0x1
  401960:	48 89 ef             	mov    rdi,rbp
  401963:	e8 f8 f1 ff ff       	call   400b60 <strlen@plt>
  401968:	48 39 d8             	cmp    rax,rbx
  40196b:	77 c3                	ja     401930 <usleep@plt+0xc90>
  40196d:	48 89 e3             	mov    rbx,rsp
  401970:	be b2 23 40 00       	mov    esi,0x4023b2
  401975:	bf 01 00 00 00       	mov    edi,0x1
  40197a:	31 c0                	xor    eax,eax
  40197c:	48 89 da             	mov    rdx,rbx
  40197f:	c6 44 24 0a 00       	mov    BYTE PTR [rsp+0xa],0x0
  401984:	e8 a7 f2 ff ff       	call   400c30 <__printf_chk@plt>
  401989:	bf ca 24 40 00       	mov    edi,0x4024ca
  40198e:	b9 0a 00 00 00       	mov    ecx,0xa
  401993:	48 89 de             	mov    rsi,rbx
  401996:	f3 a6                	repz cmps BYTE PTR ds:[rsi],BYTE PTR es:[rdi]
  401998:	0f 97 c0             	seta   al
  40199b:	1c 00                	sbb    al,0x0
  40199d:	84 c0                	test   al,al
  40199f:	74 05                	je     4019a6 <usleep@plt+0xd06>
  4019a1:	e8 da f8 ff ff       	call   401280 <usleep@plt+0x5e0>
  4019a6:	bf d4 24 40 00       	mov    edi,0x4024d4
  4019ab:	e8 30 fb ff ff       	call   4014e0 <usleep@plt+0x840>
  4019b0:	48 8b 44 24 68       	mov    rax,QWORD PTR [rsp+0x68]
  4019b5:	64 48 33 04 25 28 00 	xor    rax,QWORD PTR fs:0x28
  4019bc:	00 00 
  4019be:	75 62                	jne    401a22 <usleep@plt+0xd82>
  4019c0:	48 83 c4 70          	add    rsp,0x70
  4019c4:	5b                   	pop    rbx
  4019c5:	5d                   	pop    rbp
  4019c6:	41 5c                	pop    r12
  4019c8:	c3                   	ret    
  4019c9:	0f 1f 80 00 00 00 00 	nop    DWORD PTR [rax+0x0]
  4019d0:	41 83 ec 01          	sub    r12d,0x1
  4019d4:	eb 86                	jmp    40195c <usleep@plt+0xcbc>
  4019d6:	66 2e 0f 1f 84 00 00 	nop    WORD PTR cs:[rax+rax*1+0x0]
  4019dd:	00 00 00 
  4019e0:	49 63 c4             	movsxd rax,r12d
  4019e3:	80 2c 04 01          	sub    BYTE PTR [rsp+rax*1],0x1
  4019e7:	e9 70 ff ff ff       	jmp    40195c <usleep@plt+0xcbc>
  4019ec:	0f 1f 40 00          	nop    DWORD PTR [rax+0x0]
  4019f0:	49 63 c4             	movsxd rax,r12d
  4019f3:	80 04 04 01          	add    BYTE PTR [rsp+rax*1],0x1
  4019f7:	e9 60 ff ff ff       	jmp    40195c <usleep@plt+0xcbc>
  4019fc:	0f 1f 40 00          	nop    DWORD PTR [rax+0x0]
  401a00:	e8 7b f8 ff ff       	call   401280 <usleep@plt+0x5e0>
  401a05:	80 7c 1d 00 2e       	cmp    BYTE PTR [rbp+rbx*1+0x0],0x2e
  401a0a:	0f 85 4c ff ff ff    	jne    40195c <usleep@plt+0xcbc>
  401a10:	e9 58 ff ff ff       	jmp    40196d <usleep@plt+0xccd>
  401a15:	0f 1f 00             	nop    DWORD PTR [rax]
  401a18:	e8 63 f8 ff ff       	call   401280 <usleep@plt+0x5e0>
  401a1d:	e9 18 ff ff ff       	jmp    40193a <usleep@plt+0xc9a>
  401a22:	e8 49 f1 ff ff       	call   400b70 <__stack_chk_fail@plt>
  401a27:	66 0f 1f 84 00 00 00 	nop    WORD PTR [rax+rax*1+0x0]
  401a2e:	00 00 
  401a30:	48 83 ec 08          	sub    rsp,0x8
  401a34:	be 00 26 40 00       	mov    esi,0x402600
  401a39:	bf 01 00 00 00       	mov    edi,0x1
  401a3e:	31 c0                	xor    eax,eax
  401a40:	e8 eb f1 ff ff       	call   400c30 <__printf_chk@plt>
  401a45:	48 8b 15 ec 16 20 00 	mov    rdx,QWORD PTR [rip+0x2016ec]        # 603138 <stderr@@GLIBC_2.2.5+0x18>
  401a4c:	be 00 04 00 00       	mov    esi,0x400
  401a51:	bf 40 85 60 00       	mov    edi,0x608540
  401a56:	e8 55 f1 ff ff       	call   400bb0 <fgets@plt>
  401a5b:	b8 40 85 60 00       	mov    eax,0x608540
  401a60:	8b 08                	mov    ecx,DWORD PTR [rax]
  401a62:	48 83 c0 04          	add    rax,0x4
  401a66:	8d 91 ff fe fe fe    	lea    edx,[rcx-0x1010101]
  401a6c:	f7 d1                	not    ecx
  401a6e:	21 ca                	and    edx,ecx
  401a70:	81 e2 80 80 80 80    	and    edx,0x80808080
  401a76:	74 e8                	je     401a60 <usleep@plt+0xdc0>
  401a78:	89 d1                	mov    ecx,edx
  401a7a:	c1 e9 10             	shr    ecx,0x10
  401a7d:	f7 c2 80 80 00 00    	test   edx,0x8080
  401a83:	0f 44 d1             	cmove  edx,ecx
  401a86:	48 8d 48 02          	lea    rcx,[rax+0x2]
  401a8a:	89 d6                	mov    esi,edx
  401a8c:	48 0f 44 c1          	cmove  rax,rcx
  401a90:	40 00 d6             	add    sil,dl
  401a93:	48 1d 43 85 60 00    	sbb    rax,0x608543
  401a99:	85 c0                	test   eax,eax
  401a9b:	7e 0e                	jle    401aab <usleep@plt+0xe0b>
  401a9d:	83 e8 01             	sub    eax,0x1
  401aa0:	48 98                	cdqe   
  401aa2:	80 b8 40 85 60 00 0a 	cmp    BYTE PTR [rax+0x608540],0xa
  401aa9:	74 05                	je     401ab0 <usleep@plt+0xe10>
  401aab:	48 83 c4 08          	add    rsp,0x8
  401aaf:	c3                   	ret    
  401ab0:	c6 80 40 85 60 00 00 	mov    BYTE PTR [rax+0x608540],0x0
  401ab7:	48 83 c4 08          	add    rsp,0x8
  401abb:	c3                   	ret    
  401abc:	0f 1f 40 00          	nop    DWORD PTR [rax+0x0]
  401ac0:	55                   	push   rbp
  401ac1:	48 89 e5             	mov    rbp,rsp
  401ac4:	41 57                	push   r15
  401ac6:	41 56                	push   r14
  401ac8:	41 55                	push   r13
  401aca:	41 54                	push   r12
  401acc:	49 89 ff             	mov    r15,rdi
  401acf:	53                   	push   rbx
  401ad0:	41 89 f5             	mov    r13d,esi
  401ad3:	48 89 d7             	mov    rdi,rdx
  401ad6:	be 22 00 00 00       	mov    esi,0x22
  401adb:	48 89 d3             	mov    rbx,rdx
  401ade:	48 81 ec 18 08 00 00 	sub    rsp,0x818
  401ae5:	64 48 8b 04 25 28 00 	mov    rax,QWORD PTR fs:0x28
  401aec:	00 00 
  401aee:	48 89 45 c8          	mov    QWORD PTR [rbp-0x38],rax
  401af2:	31 c0                	xor    eax,eax
  401af4:	e8 87 f0 ff ff       	call   400b80 <strchr@plt>
  401af9:	48 85 c0             	test   rax,rax
  401afc:	0f 85 08 01 00 00    	jne    401c0a <usleep@plt+0xf6a>
  401b02:	4c 8d a5 c0 f7 ff ff 	lea    r12,[rbp-0x840]
  401b09:	68 c8 26 40 00       	push   0x4026c8
  401b0e:	53                   	push   rbx
  401b0f:	ba 01 00 00 00       	mov    edx,0x1
  401b14:	41 b9 40 85 60 00    	mov    r9d,0x608540
  401b1a:	41 b8 60 26 40 00    	mov    r8d,0x402660
  401b20:	b9 00 08 00 00       	mov    ecx,0x800
  401b25:	be 00 08 00 00       	mov    esi,0x800
  401b2a:	4c 89 e7             	mov    rdi,r12
  401b2d:	31 c0                	xor    eax,eax
  401b2f:	e8 dc ef ff ff       	call   400b10 <__snprintf_chk@plt>
  401b34:	4c 89 e2             	mov    rdx,r12
  401b37:	8b 0a                	mov    ecx,DWORD PTR [rdx]
  401b39:	48 83 c2 04          	add    rdx,0x4
  401b3d:	8d 81 ff fe fe fe    	lea    eax,[rcx-0x1010101]
  401b43:	f7 d1                	not    ecx
  401b45:	21 c8                	and    eax,ecx
  401b47:	25 80 80 80 80       	and    eax,0x80808080
  401b4c:	74 e9                	je     401b37 <usleep@plt+0xe97>
  401b4e:	89 c1                	mov    ecx,eax
  401b50:	c1 e9 10             	shr    ecx,0x10
  401b53:	a9 80 80 00 00       	test   eax,0x8080
  401b58:	0f 44 c1             	cmove  eax,ecx
  401b5b:	48 8d 4a 02          	lea    rcx,[rdx+0x2]
  401b5f:	89 c6                	mov    esi,eax
  401b61:	48 0f 44 d1          	cmove  rdx,rcx
  401b65:	40 00 c6             	add    sil,al
  401b68:	48 83 da 03          	sbb    rdx,0x3
  401b6c:	4c 29 e2             	sub    rdx,r12
  401b6f:	48 81 fa ff 07 00 00 	cmp    rdx,0x7ff
  401b76:	58                   	pop    rax
  401b77:	59                   	pop    rcx
  401b78:	0f 84 d5 00 00 00    	je     401c53 <usleep@plt+0xfb3>
  401b7e:	41 c6 07 00          	mov    BYTE PTR [r15],0x0
  401b82:	be 98 1d 40 00       	mov    esi,0x401d98
  401b87:	4c 89 e7             	mov    rdi,r12
  401b8a:	e8 b1 f0 ff ff       	call   400c40 <popen@plt>
  401b8f:	48 85 c0             	test   rax,rax
  401b92:	48 89 c3             	mov    rbx,rax
  401b95:	0f 84 a7 00 00 00    	je     401c42 <usleep@plt+0xfa2>
  401b9b:	45 89 ee             	mov    r14d,r13d
  401b9e:	4d 89 fc             	mov    r12,r15
  401ba1:	48 89 df             	mov    rdi,rbx
  401ba4:	e8 37 f0 ff ff       	call   400be0 <feof@plt>
  401ba9:	85 c0                	test   eax,eax
  401bab:	75 31                	jne    401bde <usleep@plt+0xf3e>
  401bad:	48 89 da             	mov    rdx,rbx
  401bb0:	44 89 f6             	mov    esi,r14d
  401bb3:	4c 89 e7             	mov    rdi,r12
  401bb6:	e8 f5 ef ff ff       	call   400bb0 <fgets@plt>
  401bbb:	48 85 c0             	test   rax,rax
  401bbe:	74 e1                	je     401ba1 <usleep@plt+0xf01>
  401bc0:	4c 89 ff             	mov    rdi,r15
  401bc3:	45 89 ee             	mov    r14d,r13d
  401bc6:	e8 95 ef ff ff       	call   400b60 <strlen@plt>
  401bcb:	48 89 df             	mov    rdi,rbx
  401bce:	41 29 c6             	sub    r14d,eax
  401bd1:	4d 8d 24 07          	lea    r12,[r15+rax*1]
  401bd5:	e8 06 f0 ff ff       	call   400be0 <feof@plt>
  401bda:	85 c0                	test   eax,eax
  401bdc:	74 cf                	je     401bad <usleep@plt+0xf0d>
  401bde:	48 89 df             	mov    rdi,rbx
  401be1:	e8 aa ef ff ff       	call   400b90 <pclose@plt>
  401be6:	41 80 3f 00          	cmp    BYTE PTR [r15],0x0
  401bea:	74 34                	je     401c20 <usleep@plt+0xf80>
  401bec:	48 8b 45 c8          	mov    rax,QWORD PTR [rbp-0x38]
  401bf0:	64 48 33 04 25 28 00 	xor    rax,QWORD PTR fs:0x28
  401bf7:	00 00 
  401bf9:	75 20                	jne    401c1b <usleep@plt+0xf7b>
  401bfb:	48 8d 65 d8          	lea    rsp,[rbp-0x28]
  401bff:	5b                   	pop    rbx
  401c00:	41 5c                	pop    r12
  401c02:	41 5d                	pop    r13
  401c04:	41 5e                	pop    r14
  401c06:	41 5f                	pop    r15
  401c08:	5d                   	pop    rbp
  401c09:	c3                   	ret    
  401c0a:	be 15 26 40 00       	mov    esi,0x402615
  401c0f:	bf 01 00 00 00       	mov    edi,0x1
  401c14:	31 c0                	xor    eax,eax
  401c16:	e8 e5 ef ff ff       	call   400c00 <err@plt>
  401c1b:	e8 50 ef ff ff       	call   400b70 <__stack_chk_fail@plt>
  401c20:	48 8b 3d f9 14 20 00 	mov    rdi,QWORD PTR [rip+0x2014f9]        # 603120 <stderr@@GLIBC_2.2.5>
  401c27:	ba f0 26 40 00       	mov    edx,0x4026f0
  401c2c:	be 01 00 00 00       	mov    esi,0x1
  401c31:	31 c0                	xor    eax,eax
  401c33:	e8 38 f0 ff ff       	call   400c70 <__fprintf_chk@plt>
  401c38:	bf 01 00 00 00       	mov    edi,0x1
  401c3d:	e8 1e f0 ff ff       	call   400c60 <exit@plt>
  401c42:	be 47 26 40 00       	mov    esi,0x402647
  401c47:	bf 01 00 00 00       	mov    edi,0x1
  401c4c:	31 c0                	xor    eax,eax
  401c4e:	e8 ad ef ff ff       	call   400c00 <err@plt>
  401c53:	48 89 da             	mov    rdx,rbx
  401c56:	be 30 26 40 00       	mov    esi,0x402630
  401c5b:	bf 01 00 00 00       	mov    edi,0x1
  401c60:	31 c0                	xor    eax,eax
  401c62:	e8 99 ef ff ff       	call   400c00 <err@plt>
  401c67:	66 0f 1f 84 00 00 00 	nop    WORD PTR [rax+rax*1+0x0]
  401c6e:	00 00 
  401c70:	48 81 ec 18 08 00 00 	sub    rsp,0x818
  401c77:	48 89 fa             	mov    rdx,rdi
  401c7a:	be 00 08 00 00       	mov    esi,0x800
  401c7f:	48 89 e7             	mov    rdi,rsp
  401c82:	64 48 8b 04 25 28 00 	mov    rax,QWORD PTR fs:0x28
  401c89:	00 00 
  401c8b:	48 89 84 24 08 08 00 	mov    QWORD PTR [rsp+0x808],rax
  401c92:	00 
  401c93:	31 c0                	xor    eax,eax
  401c95:	e8 26 fe ff ff       	call   401ac0 <usleep@plt+0xe20>
  401c9a:	48 8b 84 24 08 08 00 	mov    rax,QWORD PTR [rsp+0x808]
  401ca1:	00 
  401ca2:	64 48 33 04 25 28 00 	xor    rax,QWORD PTR fs:0x28
  401ca9:	00 00 
  401cab:	75 08                	jne    401cb5 <usleep@plt+0x1015>
  401cad:	48 81 c4 18 08 00 00 	add    rsp,0x818
  401cb4:	c3                   	ret    
  401cb5:	e8 b6 ee ff ff       	call   400b70 <__stack_chk_fail@plt>
  401cba:	66 0f 1f 44 00 00    	nop    WORD PTR [rax+rax*1+0x0]
  401cc0:	41 57                	push   r15
  401cc2:	41 56                	push   r14
  401cc4:	49 89 d7             	mov    r15,rdx
  401cc7:	41 55                	push   r13
  401cc9:	41 54                	push   r12
  401ccb:	4c 8d 25 3e 11 20 00 	lea    r12,[rip+0x20113e]        # 602e10 <usleep@plt+0x202170>
  401cd2:	55                   	push   rbp
  401cd3:	48 8d 2d 3e 11 20 00 	lea    rbp,[rip+0x20113e]        # 602e18 <usleep@plt+0x202178>
  401cda:	53                   	push   rbx
  401cdb:	41 89 fd             	mov    r13d,edi
  401cde:	49 89 f6             	mov    r14,rsi
  401ce1:	4c 29 e5             	sub    rbp,r12
  401ce4:	48 83 ec 08          	sub    rsp,0x8
  401ce8:	48 c1 fd 03          	sar    rbp,0x3
  401cec:	e8 df ed ff ff       	call   400ad0 <getenv@plt-0x30>
  401cf1:	48 85 ed             	test   rbp,rbp
  401cf4:	74 20                	je     401d16 <usleep@plt+0x1076>
  401cf6:	31 db                	xor    ebx,ebx
  401cf8:	0f 1f 84 00 00 00 00 	nop    DWORD PTR [rax+rax*1+0x0]
  401cff:	00 
  401d00:	4c 89 fa             	mov    rdx,r15
  401d03:	4c 89 f6             	mov    rsi,r14
  401d06:	44 89 ef             	mov    edi,r13d
  401d09:	41 ff 14 dc          	call   QWORD PTR [r12+rbx*8]
  401d0d:	48 83 c3 01          	add    rbx,0x1
  401d11:	48 39 dd             	cmp    rbp,rbx
  401d14:	75 ea                	jne    401d00 <usleep@plt+0x1060>
  401d16:	48 83 c4 08          	add    rsp,0x8
  401d1a:	5b                   	pop    rbx
  401d1b:	5d                   	pop    rbp
  401d1c:	41 5c                	pop    r12
  401d1e:	41 5d                	pop    r13
  401d20:	41 5e                	pop    r14
  401d22:	41 5f                	pop    r15
  401d24:	c3                   	ret    
  401d25:	90                   	nop
  401d26:	66 2e 0f 1f 84 00 00 	nop    WORD PTR cs:[rax+rax*1+0x0]
  401d2d:	00 00 00 
  401d30:	f3 c3                	repz ret 

Disassembly of section .fini:

0000000000401d34 <.fini>:
  401d34:	48 83 ec 08          	sub    rsp,0x8
  401d38:	48 83 c4 08          	add    rsp,0x8
  401d3c:	c3                   	ret    
