
crackme0x00:     file format elf32-i386


Disassembly of section .init:

080484d4 <_init>:
 80484d4:	53                   	push   %ebx
 80484d5:	83 ec 08             	sub    $0x8,%esp
 80484d8:	e8 83 01 00 00       	call   8048660 <__x86.get_pc_thunk.bx>
 80484dd:	81 c3 23 1b 00 00    	add    $0x1b23,%ebx
 80484e3:	8b 83 fc ff ff ff    	mov    -0x4(%ebx),%eax
 80484e9:	85 c0                	test   %eax,%eax
 80484eb:	74 05                	je     80484f2 <_init+0x1e>
 80484ed:	e8 0e 01 00 00       	call   8048600 <__gmon_start__@plt>
 80484f2:	83 c4 08             	add    $0x8,%esp
 80484f5:	5b                   	pop    %ebx
 80484f6:	c3                   	ret    

Disassembly of section .plt:

08048500 <.plt>:
 8048500:	ff 35 04 a0 04 08    	pushl  0x804a004
 8048506:	ff 25 08 a0 04 08    	jmp    *0x804a008
 804850c:	00 00                	add    %al,(%eax)
	...

08048510 <strcmp@plt>:
 8048510:	ff 25 0c a0 04 08    	jmp    *0x804a00c
 8048516:	68 00 00 00 00       	push   $0x0
 804851b:	e9 e0 ff ff ff       	jmp    8048500 <.plt>

08048520 <printf@plt>:
 8048520:	ff 25 10 a0 04 08    	jmp    *0x804a010
 8048526:	68 08 00 00 00       	push   $0x8
 804852b:	e9 d0 ff ff ff       	jmp    8048500 <.plt>

08048530 <fgets@plt>:
 8048530:	ff 25 14 a0 04 08    	jmp    *0x804a014
 8048536:	68 10 00 00 00       	push   $0x10
 804853b:	e9 c0 ff ff ff       	jmp    8048500 <.plt>

08048540 <fclose@plt>:
 8048540:	ff 25 18 a0 04 08    	jmp    *0x804a018
 8048546:	68 18 00 00 00       	push   $0x18
 804854b:	e9 b0 ff ff ff       	jmp    8048500 <.plt>

08048550 <__stack_chk_fail@plt>:
 8048550:	ff 25 1c a0 04 08    	jmp    *0x804a01c
 8048556:	68 20 00 00 00       	push   $0x20
 804855b:	e9 a0 ff ff ff       	jmp    8048500 <.plt>

08048560 <geteuid@plt>:
 8048560:	ff 25 20 a0 04 08    	jmp    *0x804a020
 8048566:	68 28 00 00 00       	push   $0x28
 804856b:	e9 90 ff ff ff       	jmp    8048500 <.plt>

08048570 <err@plt>:
 8048570:	ff 25 24 a0 04 08    	jmp    *0x804a024
 8048576:	68 30 00 00 00       	push   $0x30
 804857b:	e9 80 ff ff ff       	jmp    8048500 <.plt>

08048580 <fread@plt>:
 8048580:	ff 25 28 a0 04 08    	jmp    *0x804a028
 8048586:	68 38 00 00 00       	push   $0x38
 804858b:	e9 70 ff ff ff       	jmp    8048500 <.plt>

08048590 <puts@plt>:
 8048590:	ff 25 2c a0 04 08    	jmp    *0x804a02c
 8048596:	68 40 00 00 00       	push   $0x40
 804859b:	e9 60 ff ff ff       	jmp    8048500 <.plt>

080485a0 <setreuid@plt>:
 80485a0:	ff 25 30 a0 04 08    	jmp    *0x804a030
 80485a6:	68 48 00 00 00       	push   $0x48
 80485ab:	e9 50 ff ff ff       	jmp    8048500 <.plt>

080485b0 <__libc_start_main@plt>:
 80485b0:	ff 25 34 a0 04 08    	jmp    *0x804a034
 80485b6:	68 50 00 00 00       	push   $0x50
 80485bb:	e9 40 ff ff ff       	jmp    8048500 <.plt>

080485c0 <setvbuf@plt>:
 80485c0:	ff 25 38 a0 04 08    	jmp    *0x804a038
 80485c6:	68 58 00 00 00       	push   $0x58
 80485cb:	e9 30 ff ff ff       	jmp    8048500 <.plt>

080485d0 <fopen@plt>:
 80485d0:	ff 25 3c a0 04 08    	jmp    *0x804a03c
 80485d6:	68 60 00 00 00       	push   $0x60
 80485db:	e9 20 ff ff ff       	jmp    8048500 <.plt>

080485e0 <snprintf@plt>:
 80485e0:	ff 25 40 a0 04 08    	jmp    *0x804a040
 80485e6:	68 68 00 00 00       	push   $0x68
 80485eb:	e9 10 ff ff ff       	jmp    8048500 <.plt>

080485f0 <fputs@plt>:
 80485f0:	ff 25 44 a0 04 08    	jmp    *0x804a044
 80485f6:	68 70 00 00 00       	push   $0x70
 80485fb:	e9 00 ff ff ff       	jmp    8048500 <.plt>

Disassembly of section .plt.got:

08048600 <__gmon_start__@plt>:
 8048600:	ff 25 fc 9f 04 08    	jmp    *0x8049ffc
 8048606:	66 90                	xchg   %ax,%ax

Disassembly of section .text:

08048610 <_start>:
 8048610:	31 ed                	xor    %ebp,%ebp
 8048612:	5e                   	pop    %esi
 8048613:	89 e1                	mov    %esp,%ecx
 8048615:	83 e4 f0             	and    $0xfffffff0,%esp
 8048618:	50                   	push   %eax
 8048619:	54                   	push   %esp
 804861a:	52                   	push   %edx
 804861b:	e8 23 00 00 00       	call   8048643 <_start+0x33>
 8048620:	81 c3 e0 19 00 00    	add    $0x19e0,%ebx
 8048626:	8d 83 e0 e9 ff ff    	lea    -0x1620(%ebx),%eax
 804862c:	50                   	push   %eax
 804862d:	8d 83 80 e9 ff ff    	lea    -0x1680(%ebx),%eax
 8048633:	50                   	push   %eax
 8048634:	51                   	push   %ecx
 8048635:	56                   	push   %esi
 8048636:	c7 c0 5e 88 04 08    	mov    $0x804885e,%eax
 804863c:	50                   	push   %eax
 804863d:	e8 6e ff ff ff       	call   80485b0 <__libc_start_main@plt>
 8048642:	f4                   	hlt    
 8048643:	8b 1c 24             	mov    (%esp),%ebx
 8048646:	c3                   	ret    
 8048647:	66 90                	xchg   %ax,%ax
 8048649:	66 90                	xchg   %ax,%ax
 804864b:	66 90                	xchg   %ax,%ax
 804864d:	66 90                	xchg   %ax,%ax
 804864f:	90                   	nop

08048650 <_dl_relocate_static_pie>:
 8048650:	f3 c3                	repz ret 
 8048652:	66 90                	xchg   %ax,%ax
 8048654:	66 90                	xchg   %ax,%ax
 8048656:	66 90                	xchg   %ax,%ax
 8048658:	66 90                	xchg   %ax,%ax
 804865a:	66 90                	xchg   %ax,%ax
 804865c:	66 90                	xchg   %ax,%ax
 804865e:	66 90                	xchg   %ax,%ax

08048660 <__x86.get_pc_thunk.bx>:
 8048660:	8b 1c 24             	mov    (%esp),%ebx
 8048663:	c3                   	ret    
 8048664:	66 90                	xchg   %ax,%ax
 8048666:	66 90                	xchg   %ax,%ax
 8048668:	66 90                	xchg   %ax,%ax
 804866a:	66 90                	xchg   %ax,%ax
 804866c:	66 90                	xchg   %ax,%ax
 804866e:	66 90                	xchg   %ax,%ax

08048670 <deregister_tm_clones>:
 8048670:	b8 54 a0 04 08       	mov    $0x804a054,%eax
 8048675:	3d 54 a0 04 08       	cmp    $0x804a054,%eax
 804867a:	74 24                	je     80486a0 <deregister_tm_clones+0x30>
 804867c:	b8 00 00 00 00       	mov    $0x0,%eax
 8048681:	85 c0                	test   %eax,%eax
 8048683:	74 1b                	je     80486a0 <deregister_tm_clones+0x30>
 8048685:	55                   	push   %ebp
 8048686:	89 e5                	mov    %esp,%ebp
 8048688:	83 ec 14             	sub    $0x14,%esp
 804868b:	68 54 a0 04 08       	push   $0x804a054
 8048690:	ff d0                	call   *%eax
 8048692:	83 c4 10             	add    $0x10,%esp
 8048695:	c9                   	leave  
 8048696:	c3                   	ret    
 8048697:	89 f6                	mov    %esi,%esi
 8048699:	8d bc 27 00 00 00 00 	lea    0x0(%edi,%eiz,1),%edi
 80486a0:	f3 c3                	repz ret 
 80486a2:	8d b4 26 00 00 00 00 	lea    0x0(%esi,%eiz,1),%esi
 80486a9:	8d bc 27 00 00 00 00 	lea    0x0(%edi,%eiz,1),%edi

080486b0 <register_tm_clones>:
 80486b0:	b8 54 a0 04 08       	mov    $0x804a054,%eax
 80486b5:	2d 54 a0 04 08       	sub    $0x804a054,%eax
 80486ba:	c1 f8 02             	sar    $0x2,%eax
 80486bd:	89 c2                	mov    %eax,%edx
 80486bf:	c1 ea 1f             	shr    $0x1f,%edx
 80486c2:	01 d0                	add    %edx,%eax
 80486c4:	d1 f8                	sar    %eax
 80486c6:	74 20                	je     80486e8 <register_tm_clones+0x38>
 80486c8:	ba 00 00 00 00       	mov    $0x0,%edx
 80486cd:	85 d2                	test   %edx,%edx
 80486cf:	74 17                	je     80486e8 <register_tm_clones+0x38>
 80486d1:	55                   	push   %ebp
 80486d2:	89 e5                	mov    %esp,%ebp
 80486d4:	83 ec 10             	sub    $0x10,%esp
 80486d7:	50                   	push   %eax
 80486d8:	68 54 a0 04 08       	push   $0x804a054
 80486dd:	ff d2                	call   *%edx
 80486df:	83 c4 10             	add    $0x10,%esp
 80486e2:	c9                   	leave  
 80486e3:	c3                   	ret    
 80486e4:	8d 74 26 00          	lea    0x0(%esi,%eiz,1),%esi
 80486e8:	f3 c3                	repz ret 
 80486ea:	8d b6 00 00 00 00    	lea    0x0(%esi),%esi

080486f0 <__do_global_dtors_aux>:
 80486f0:	80 3d 68 a0 04 08 00 	cmpb   $0x0,0x804a068
 80486f7:	75 17                	jne    8048710 <__do_global_dtors_aux+0x20>
 80486f9:	55                   	push   %ebp
 80486fa:	89 e5                	mov    %esp,%ebp
 80486fc:	83 ec 08             	sub    $0x8,%esp
 80486ff:	e8 6c ff ff ff       	call   8048670 <deregister_tm_clones>
 8048704:	c6 05 68 a0 04 08 01 	movb   $0x1,0x804a068
 804870b:	c9                   	leave  
 804870c:	c3                   	ret    
 804870d:	8d 76 00             	lea    0x0(%esi),%esi
 8048710:	f3 c3                	repz ret 
 8048712:	8d b4 26 00 00 00 00 	lea    0x0(%esi,%eiz,1),%esi
 8048719:	8d bc 27 00 00 00 00 	lea    0x0(%edi,%eiz,1),%edi

08048720 <frame_dummy>:
 8048720:	55                   	push   %ebp
 8048721:	89 e5                	mov    %esp,%ebp
 8048723:	5d                   	pop    %ebp
 8048724:	eb 8a                	jmp    80486b0 <register_tm_clones>

08048726 <print_key>:
 8048726:	55                   	push   %ebp
 8048727:	89 e5                	mov    %esp,%ebp
 8048729:	81 ec 28 04 00 00    	sub    $0x428,%esp
 804872f:	8b 45 08             	mov    0x8(%ebp),%eax
 8048732:	89 85 e4 fb ff ff    	mov    %eax,-0x41c(%ebp)
 8048738:	65 a1 14 00 00 00    	mov    %gs:0x14,%eax
 804873e:	89 45 f4             	mov    %eax,-0xc(%ebp)
 8048741:	31 c0                	xor    %eax,%eax
 8048743:	83 ec 08             	sub    $0x8,%esp
 8048746:	68 00 8a 04 08       	push   $0x8048a00
 804874b:	68 03 8a 04 08       	push   $0x8048a03
 8048750:	e8 7b fe ff ff       	call   80485d0 <fopen@plt>
 8048755:	83 c4 10             	add    $0x10,%esp
 8048758:	89 85 ec fb ff ff    	mov    %eax,-0x414(%ebp)
 804875e:	83 bd ec fb ff ff 00 	cmpl   $0x0,-0x414(%ebp)
 8048765:	75 0f                	jne    8048776 <print_key+0x50>
 8048767:	83 ec 08             	sub    $0x8,%esp
 804876a:	68 10 8a 04 08       	push   $0x8048a10
 804876f:	6a 01                	push   $0x1
 8048771:	e8 fa fd ff ff       	call   8048570 <err@plt>
 8048776:	83 ec 08             	sub    $0x8,%esp
 8048779:	ff b5 ec fb ff ff    	pushl  -0x414(%ebp)
 804877f:	ff b5 e4 fb ff ff    	pushl  -0x41c(%ebp)
 8048785:	e8 66 fe ff ff       	call   80485f0 <fputs@plt>
 804878a:	83 c4 10             	add    $0x10,%esp
 804878d:	ff b5 ec fb ff ff    	pushl  -0x414(%ebp)
 8048793:	68 ff 03 00 00       	push   $0x3ff
 8048798:	6a 01                	push   $0x1
 804879a:	8d 85 f4 fb ff ff    	lea    -0x40c(%ebp),%eax
 80487a0:	50                   	push   %eax
 80487a1:	e8 da fd ff ff       	call   8048580 <fread@plt>
 80487a6:	83 c4 10             	add    $0x10,%esp
 80487a9:	89 85 f0 fb ff ff    	mov    %eax,-0x410(%ebp)
 80487af:	8d 95 f4 fb ff ff    	lea    -0x40c(%ebp),%edx
 80487b5:	8b 85 f0 fb ff ff    	mov    -0x410(%ebp),%eax
 80487bb:	01 d0                	add    %edx,%eax
 80487bd:	c6 00 00             	movb   $0x0,(%eax)
 80487c0:	83 ec 08             	sub    $0x8,%esp
 80487c3:	8d 85 f4 fb ff ff    	lea    -0x40c(%ebp),%eax
 80487c9:	50                   	push   %eax
 80487ca:	68 3d 8a 04 08       	push   $0x8048a3d
 80487cf:	e8 4c fd ff ff       	call   8048520 <printf@plt>
 80487d4:	83 c4 10             	add    $0x10,%esp
 80487d7:	81 bd f0 fb ff ff fe 	cmpl   $0x3fe,-0x410(%ebp)
 80487de:	03 00 00 
 80487e1:	76 02                	jbe    80487e5 <print_key+0xbf>
 80487e3:	eb a8                	jmp    804878d <print_key+0x67>
 80487e5:	90                   	nop
 80487e6:	83 ec 0c             	sub    $0xc,%esp
 80487e9:	ff b5 ec fb ff ff    	pushl  -0x414(%ebp)
 80487ef:	e8 4c fd ff ff       	call   8048540 <fclose@plt>
 80487f4:	83 c4 10             	add    $0x10,%esp
 80487f7:	90                   	nop
 80487f8:	8b 45 f4             	mov    -0xc(%ebp),%eax
 80487fb:	65 33 05 14 00 00 00 	xor    %gs:0x14,%eax
 8048802:	74 05                	je     8048809 <print_key+0xe3>
 8048804:	e8 47 fd ff ff       	call   8048550 <__stack_chk_fail@plt>
 8048809:	c9                   	leave  
 804880a:	c3                   	ret    

0804880b <handle_failure>:
 804880b:	55                   	push   %ebp
 804880c:	89 e5                	mov    %esp,%ebp
 804880e:	81 ec 88 00 00 00    	sub    $0x88,%esp
 8048814:	8b 45 08             	mov    0x8(%ebp),%eax
 8048817:	89 45 84             	mov    %eax,-0x7c(%ebp)
 804881a:	65 a1 14 00 00 00    	mov    %gs:0x14,%eax
 8048820:	89 45 f4             	mov    %eax,-0xc(%ebp)
 8048823:	31 c0                	xor    %eax,%eax
 8048825:	ff 75 84             	pushl  -0x7c(%ebp)
 8048828:	68 40 8a 04 08       	push   $0x8048a40
 804882d:	6a 64                	push   $0x64
 804882f:	8d 45 90             	lea    -0x70(%ebp),%eax
 8048832:	50                   	push   %eax
 8048833:	e8 a8 fd ff ff       	call   80485e0 <snprintf@plt>
 8048838:	83 c4 10             	add    $0x10,%esp
 804883b:	83 ec 0c             	sub    $0xc,%esp
 804883e:	8d 45 90             	lea    -0x70(%ebp),%eax
 8048841:	50                   	push   %eax
 8048842:	e8 d9 fc ff ff       	call   8048520 <printf@plt>
 8048847:	83 c4 10             	add    $0x10,%esp
 804884a:	90                   	nop
 804884b:	8b 45 f4             	mov    -0xc(%ebp),%eax
 804884e:	65 33 05 14 00 00 00 	xor    %gs:0x14,%eax
 8048855:	74 05                	je     804885c <handle_failure+0x51>
 8048857:	e8 f4 fc ff ff       	call   8048550 <__stack_chk_fail@plt>
 804885c:	c9                   	leave  
 804885d:	c3                   	ret    

0804885e <main>:
 804885e:	8d 4c 24 04          	lea    0x4(%esp),%ecx
 8048862:	83 e4 f0             	and    $0xfffffff0,%esp
 8048865:	ff 71 fc             	pushl  -0x4(%ecx)
 8048868:	55                   	push   %ebp
 8048869:	89 e5                	mov    %esp,%ebp
 804886b:	53                   	push   %ebx
 804886c:	51                   	push   %ecx
 804886d:	83 c4 80             	add    $0xffffff80,%esp
 8048870:	89 c8                	mov    %ecx,%eax
 8048872:	8b 40 04             	mov    0x4(%eax),%eax
 8048875:	89 45 84             	mov    %eax,-0x7c(%ebp)
 8048878:	65 a1 14 00 00 00    	mov    %gs:0x14,%eax
 804887e:	89 45 f4             	mov    %eax,-0xc(%ebp)
 8048881:	31 c0                	xor    %eax,%eax
 8048883:	e8 d8 fc ff ff       	call   8048560 <geteuid@plt>
 8048888:	89 c3                	mov    %eax,%ebx
 804888a:	e8 d1 fc ff ff       	call   8048560 <geteuid@plt>
 804888f:	83 ec 08             	sub    $0x8,%esp
 8048892:	53                   	push   %ebx
 8048893:	50                   	push   %eax
 8048894:	e8 07 fd ff ff       	call   80485a0 <setreuid@plt>
 8048899:	83 c4 10             	add    $0x10,%esp
 804889c:	a1 64 a0 04 08       	mov    0x804a064,%eax
 80488a1:	6a 00                	push   $0x0
 80488a3:	6a 02                	push   $0x2
 80488a5:	6a 00                	push   $0x0
 80488a7:	50                   	push   %eax
 80488a8:	e8 13 fd ff ff       	call   80485c0 <setvbuf@plt>
 80488ad:	83 c4 10             	add    $0x10,%esp
 80488b0:	a1 60 a0 04 08       	mov    0x804a060,%eax
 80488b5:	6a 00                	push   $0x0
 80488b7:	6a 02                	push   $0x2
 80488b9:	6a 00                	push   $0x0
 80488bb:	50                   	push   %eax
 80488bc:	e8 ff fc ff ff       	call   80485c0 <setvbuf@plt>
 80488c1:	83 c4 10             	add    $0x10,%esp
 80488c4:	a1 50 a0 04 08       	mov    0x804a050,%eax
 80488c9:	89 45 8c             	mov    %eax,-0x74(%ebp)
 80488cc:	83 ec 0c             	sub    $0xc,%esp
 80488cf:	68 56 8a 04 08       	push   $0x8048a56
 80488d4:	e8 b7 fc ff ff       	call   8048590 <puts@plt>
 80488d9:	83 c4 10             	add    $0x10,%esp
 80488dc:	83 ec 0c             	sub    $0xc,%esp
 80488df:	68 6e 8a 04 08       	push   $0x8048a6e
 80488e4:	e8 37 fc ff ff       	call   8048520 <printf@plt>
 80488e9:	83 c4 10             	add    $0x10,%esp
 80488ec:	a1 60 a0 04 08       	mov    0x804a060,%eax
 80488f1:	83 ec 04             	sub    $0x4,%esp
 80488f4:	50                   	push   %eax
 80488f5:	6a 64                	push   $0x64
 80488f7:	8d 45 90             	lea    -0x70(%ebp),%eax
 80488fa:	50                   	push   %eax
 80488fb:	e8 30 fc ff ff       	call   8048530 <fgets@plt>
 8048900:	83 c4 10             	add    $0x10,%esp
 8048903:	83 ec 08             	sub    $0x8,%esp
 8048906:	68 78 8a 04 08       	push   $0x8048a78
 804890b:	8d 45 90             	lea    -0x70(%ebp),%eax
 804890e:	50                   	push   %eax
 804890f:	e8 fc fb ff ff       	call   8048510 <strcmp@plt>
 8048914:	83 c4 10             	add    $0x10,%esp
 8048917:	85 c0                	test   %eax,%eax
 8048919:	75 12                	jne    804892d <main+0xcf>
 804891b:	83 ec 0c             	sub    $0xc,%esp
 804891e:	68 80 8a 04 08       	push   $0x8048a80
 8048923:	e8 68 fc ff ff       	call   8048590 <puts@plt>
 8048928:	83 c4 10             	add    $0x10,%esp
 804892b:	eb 0f                	jmp    804893c <main+0xde>
 804892d:	83 ec 0c             	sub    $0xc,%esp
 8048930:	8d 45 90             	lea    -0x70(%ebp),%eax
 8048933:	50                   	push   %eax
 8048934:	e8 d2 fe ff ff       	call   804880b <handle_failure>
 8048939:	83 c4 10             	add    $0x10,%esp
 804893c:	8b 55 8c             	mov    -0x74(%ebp),%edx
 804893f:	a1 50 a0 04 08       	mov    0x804a050,%eax
 8048944:	39 c2                	cmp    %eax,%edx
 8048946:	74 10                	je     8048958 <main+0xfa>
 8048948:	83 ec 0c             	sub    $0xc,%esp
 804894b:	68 8f 8a 04 08       	push   $0x8048a8f
 8048950:	e8 3b fc ff ff       	call   8048590 <puts@plt>
 8048955:	83 c4 10             	add    $0x10,%esp
 8048958:	b8 00 00 00 00       	mov    $0x0,%eax
 804895d:	8b 4d f4             	mov    -0xc(%ebp),%ecx
 8048960:	65 33 0d 14 00 00 00 	xor    %gs:0x14,%ecx
 8048967:	74 05                	je     804896e <main+0x110>
 8048969:	e8 e2 fb ff ff       	call   8048550 <__stack_chk_fail@plt>
 804896e:	8d 65 f8             	lea    -0x8(%ebp),%esp
 8048971:	59                   	pop    %ecx
 8048972:	5b                   	pop    %ebx
 8048973:	5d                   	pop    %ebp
 8048974:	8d 61 fc             	lea    -0x4(%ecx),%esp
 8048977:	c3                   	ret    
 8048978:	66 90                	xchg   %ax,%ax
 804897a:	66 90                	xchg   %ax,%ax
 804897c:	66 90                	xchg   %ax,%ax
 804897e:	66 90                	xchg   %ax,%ax

08048980 <__libc_csu_init>:
 8048980:	55                   	push   %ebp
 8048981:	57                   	push   %edi
 8048982:	56                   	push   %esi
 8048983:	53                   	push   %ebx
 8048984:	e8 d7 fc ff ff       	call   8048660 <__x86.get_pc_thunk.bx>
 8048989:	81 c3 77 16 00 00    	add    $0x1677,%ebx
 804898f:	83 ec 0c             	sub    $0xc,%esp
 8048992:	8b 6c 24 28          	mov    0x28(%esp),%ebp
 8048996:	8d b3 10 ff ff ff    	lea    -0xf0(%ebx),%esi
 804899c:	e8 33 fb ff ff       	call   80484d4 <_init>
 80489a1:	8d 83 0c ff ff ff    	lea    -0xf4(%ebx),%eax
 80489a7:	29 c6                	sub    %eax,%esi
 80489a9:	c1 fe 02             	sar    $0x2,%esi
 80489ac:	85 f6                	test   %esi,%esi
 80489ae:	74 25                	je     80489d5 <__libc_csu_init+0x55>
 80489b0:	31 ff                	xor    %edi,%edi
 80489b2:	8d b6 00 00 00 00    	lea    0x0(%esi),%esi
 80489b8:	83 ec 04             	sub    $0x4,%esp
 80489bb:	55                   	push   %ebp
 80489bc:	ff 74 24 2c          	pushl  0x2c(%esp)
 80489c0:	ff 74 24 2c          	pushl  0x2c(%esp)
 80489c4:	ff 94 bb 0c ff ff ff 	call   *-0xf4(%ebx,%edi,4)
 80489cb:	83 c7 01             	add    $0x1,%edi
 80489ce:	83 c4 10             	add    $0x10,%esp
 80489d1:	39 fe                	cmp    %edi,%esi
 80489d3:	75 e3                	jne    80489b8 <__libc_csu_init+0x38>
 80489d5:	83 c4 0c             	add    $0xc,%esp
 80489d8:	5b                   	pop    %ebx
 80489d9:	5e                   	pop    %esi
 80489da:	5f                   	pop    %edi
 80489db:	5d                   	pop    %ebp
 80489dc:	c3                   	ret    
 80489dd:	8d 76 00             	lea    0x0(%esi),%esi

080489e0 <__libc_csu_fini>:
 80489e0:	f3 c3                	repz ret 

Disassembly of section .fini:

080489e4 <_fini>:
 80489e4:	53                   	push   %ebx
 80489e5:	83 ec 08             	sub    $0x8,%esp
 80489e8:	e8 73 fc ff ff       	call   8048660 <__x86.get_pc_thunk.bx>
 80489ed:	81 c3 13 16 00 00    	add    $0x1613,%ebx
 80489f3:	83 c4 08             	add    $0x8,%esp
 80489f6:	5b                   	pop    %ebx
 80489f7:	c3                   	ret    
