
crackme0x00-ssp-exec:     file format elf32-i386


Disassembly of section .init:

00000488 <_init>:
 488:	53                   	push   %ebx
 489:	83 ec 08             	sub    $0x8,%esp
 48c:	e8 ff 00 00 00       	call   590 <__x86.get_pc_thunk.bx>
 491:	81 c3 2f 1b 00 00    	add    $0x1b2f,%ebx
 497:	8b 83 34 00 00 00    	mov    0x34(%ebx),%eax
 49d:	85 c0                	test   %eax,%eax
 49f:	74 05                	je     4a6 <_init+0x1e>
 4a1:	e8 a2 00 00 00       	call   548 <__gmon_start__@plt>
 4a6:	83 c4 08             	add    $0x8,%esp
 4a9:	5b                   	pop    %ebx
 4aa:	c3                   	ret    

Disassembly of section .plt:

000004b0 <.plt>:
 4b0:	ff b3 04 00 00 00    	pushl  0x4(%ebx)
 4b6:	ff a3 08 00 00 00    	jmp    *0x8(%ebx)
 4bc:	00 00                	add    %al,(%eax)
	...

000004c0 <strcmp@plt>:
 4c0:	ff a3 0c 00 00 00    	jmp    *0xc(%ebx)
 4c6:	68 00 00 00 00       	push   $0x0
 4cb:	e9 e0 ff ff ff       	jmp    4b0 <.plt>

000004d0 <printf@plt>:
 4d0:	ff a3 10 00 00 00    	jmp    *0x10(%ebx)
 4d6:	68 08 00 00 00       	push   $0x8
 4db:	e9 d0 ff ff ff       	jmp    4b0 <.plt>

000004e0 <__stack_chk_fail@plt>:
 4e0:	ff a3 14 00 00 00    	jmp    *0x14(%ebx)
 4e6:	68 10 00 00 00       	push   $0x10
 4eb:	e9 c0 ff ff ff       	jmp    4b0 <.plt>

000004f0 <geteuid@plt>:
 4f0:	ff a3 18 00 00 00    	jmp    *0x18(%ebx)
 4f6:	68 18 00 00 00       	push   $0x18
 4fb:	e9 b0 ff ff ff       	jmp    4b0 <.plt>

00000500 <puts@plt>:
 500:	ff a3 1c 00 00 00    	jmp    *0x1c(%ebx)
 506:	68 20 00 00 00       	push   $0x20
 50b:	e9 a0 ff ff ff       	jmp    4b0 <.plt>

00000510 <setreuid@plt>:
 510:	ff a3 20 00 00 00    	jmp    *0x20(%ebx)
 516:	68 28 00 00 00       	push   $0x28
 51b:	e9 90 ff ff ff       	jmp    4b0 <.plt>

00000520 <__libc_start_main@plt>:
 520:	ff a3 24 00 00 00    	jmp    *0x24(%ebx)
 526:	68 30 00 00 00       	push   $0x30
 52b:	e9 80 ff ff ff       	jmp    4b0 <.plt>

00000530 <__isoc99_scanf@plt>:
 530:	ff a3 28 00 00 00    	jmp    *0x28(%ebx)
 536:	68 38 00 00 00       	push   $0x38
 53b:	e9 70 ff ff ff       	jmp    4b0 <.plt>

Disassembly of section .plt.got:

00000540 <__cxa_finalize@plt>:
 540:	ff a3 30 00 00 00    	jmp    *0x30(%ebx)
 546:	66 90                	xchg   %ax,%ax

00000548 <__gmon_start__@plt>:
 548:	ff a3 34 00 00 00    	jmp    *0x34(%ebx)
 54e:	66 90                	xchg   %ax,%ax

Disassembly of section .text:

00000550 <_start>:
 550:	31 ed                	xor    %ebp,%ebp
 552:	5e                   	pop    %esi
 553:	89 e1                	mov    %esp,%ecx
 555:	83 e4 f0             	and    $0xfffffff0,%esp
 558:	50                   	push   %eax
 559:	54                   	push   %esp
 55a:	52                   	push   %edx
 55b:	e8 22 00 00 00       	call   582 <_start+0x32>
 560:	81 c3 60 1a 00 00    	add    $0x1a60,%ebx
 566:	8d 83 f0 e7 ff ff    	lea    -0x1810(%ebx),%eax
 56c:	50                   	push   %eax
 56d:	8d 83 90 e7 ff ff    	lea    -0x1870(%ebx),%eax
 573:	50                   	push   %eax
 574:	51                   	push   %ecx
 575:	56                   	push   %esi
 576:	ff b3 38 00 00 00    	pushl  0x38(%ebx)
 57c:	e8 9f ff ff ff       	call   520 <__libc_start_main@plt>
 581:	f4                   	hlt    
 582:	8b 1c 24             	mov    (%esp),%ebx
 585:	c3                   	ret    
 586:	66 90                	xchg   %ax,%ax
 588:	66 90                	xchg   %ax,%ax
 58a:	66 90                	xchg   %ax,%ax
 58c:	66 90                	xchg   %ax,%ax
 58e:	66 90                	xchg   %ax,%ax

00000590 <__x86.get_pc_thunk.bx>:
 590:	8b 1c 24             	mov    (%esp),%ebx
 593:	c3                   	ret    
 594:	66 90                	xchg   %ax,%ax
 596:	66 90                	xchg   %ax,%ax
 598:	66 90                	xchg   %ax,%ax
 59a:	66 90                	xchg   %ax,%ax
 59c:	66 90                	xchg   %ax,%ax
 59e:	66 90                	xchg   %ax,%ax

000005a0 <deregister_tm_clones>:
 5a0:	e8 e4 00 00 00       	call   689 <__x86.get_pc_thunk.dx>
 5a5:	81 c2 1b 1a 00 00    	add    $0x1a1b,%edx
 5ab:	8d 8a 48 00 00 00    	lea    0x48(%edx),%ecx
 5b1:	8d 82 48 00 00 00    	lea    0x48(%edx),%eax
 5b7:	39 c8                	cmp    %ecx,%eax
 5b9:	74 1d                	je     5d8 <deregister_tm_clones+0x38>
 5bb:	8b 82 2c 00 00 00    	mov    0x2c(%edx),%eax
 5c1:	85 c0                	test   %eax,%eax
 5c3:	74 13                	je     5d8 <deregister_tm_clones+0x38>
 5c5:	55                   	push   %ebp
 5c6:	89 e5                	mov    %esp,%ebp
 5c8:	83 ec 14             	sub    $0x14,%esp
 5cb:	51                   	push   %ecx
 5cc:	ff d0                	call   *%eax
 5ce:	83 c4 10             	add    $0x10,%esp
 5d1:	c9                   	leave  
 5d2:	c3                   	ret    
 5d3:	90                   	nop
 5d4:	8d 74 26 00          	lea    0x0(%esi,%eiz,1),%esi
 5d8:	f3 c3                	repz ret 
 5da:	8d b6 00 00 00 00    	lea    0x0(%esi),%esi

000005e0 <register_tm_clones>:
 5e0:	e8 a4 00 00 00       	call   689 <__x86.get_pc_thunk.dx>
 5e5:	81 c2 db 19 00 00    	add    $0x19db,%edx
 5eb:	55                   	push   %ebp
 5ec:	8d 8a 48 00 00 00    	lea    0x48(%edx),%ecx
 5f2:	8d 82 48 00 00 00    	lea    0x48(%edx),%eax
 5f8:	29 c8                	sub    %ecx,%eax
 5fa:	89 e5                	mov    %esp,%ebp
 5fc:	53                   	push   %ebx
 5fd:	c1 f8 02             	sar    $0x2,%eax
 600:	89 c3                	mov    %eax,%ebx
 602:	83 ec 04             	sub    $0x4,%esp
 605:	c1 eb 1f             	shr    $0x1f,%ebx
 608:	01 d8                	add    %ebx,%eax
 60a:	d1 f8                	sar    %eax
 60c:	74 14                	je     622 <register_tm_clones+0x42>
 60e:	8b 92 3c 00 00 00    	mov    0x3c(%edx),%edx
 614:	85 d2                	test   %edx,%edx
 616:	74 0a                	je     622 <register_tm_clones+0x42>
 618:	83 ec 08             	sub    $0x8,%esp
 61b:	50                   	push   %eax
 61c:	51                   	push   %ecx
 61d:	ff d2                	call   *%edx
 61f:	83 c4 10             	add    $0x10,%esp
 622:	8b 5d fc             	mov    -0x4(%ebp),%ebx
 625:	c9                   	leave  
 626:	c3                   	ret    
 627:	89 f6                	mov    %esi,%esi
 629:	8d bc 27 00 00 00 00 	lea    0x0(%edi,%eiz,1),%edi

00000630 <__do_global_dtors_aux>:
 630:	55                   	push   %ebp
 631:	89 e5                	mov    %esp,%ebp
 633:	53                   	push   %ebx
 634:	e8 57 ff ff ff       	call   590 <__x86.get_pc_thunk.bx>
 639:	81 c3 87 19 00 00    	add    $0x1987,%ebx
 63f:	83 ec 04             	sub    $0x4,%esp
 642:	80 bb 48 00 00 00 00 	cmpb   $0x0,0x48(%ebx)
 649:	75 27                	jne    672 <__do_global_dtors_aux+0x42>
 64b:	8b 83 30 00 00 00    	mov    0x30(%ebx),%eax
 651:	85 c0                	test   %eax,%eax
 653:	74 11                	je     666 <__do_global_dtors_aux+0x36>
 655:	83 ec 0c             	sub    $0xc,%esp
 658:	ff b3 44 00 00 00    	pushl  0x44(%ebx)
 65e:	e8 dd fe ff ff       	call   540 <__cxa_finalize@plt>
 663:	83 c4 10             	add    $0x10,%esp
 666:	e8 35 ff ff ff       	call   5a0 <deregister_tm_clones>
 66b:	c6 83 48 00 00 00 01 	movb   $0x1,0x48(%ebx)
 672:	8b 5d fc             	mov    -0x4(%ebp),%ebx
 675:	c9                   	leave  
 676:	c3                   	ret    
 677:	89 f6                	mov    %esi,%esi
 679:	8d bc 27 00 00 00 00 	lea    0x0(%edi,%eiz,1),%edi

00000680 <frame_dummy>:
 680:	55                   	push   %ebp
 681:	89 e5                	mov    %esp,%ebp
 683:	5d                   	pop    %ebp
 684:	e9 57 ff ff ff       	jmp    5e0 <register_tm_clones>

00000689 <__x86.get_pc_thunk.dx>:
 689:	8b 14 24             	mov    (%esp),%edx
 68c:	c3                   	ret    

0000068d <main>:
 68d:	55                   	push   %ebp
 68e:	89 e5                	mov    %esp,%ebp
 690:	56                   	push   %esi
 691:	53                   	push   %ebx
 692:	83 ec 18             	sub    $0x18,%esp
 695:	e8 f6 fe ff ff       	call   590 <__x86.get_pc_thunk.bx>
 69a:	81 c3 26 19 00 00    	add    $0x1926,%ebx
 6a0:	8b 45 0c             	mov    0xc(%ebp),%eax
 6a3:	89 45 e0             	mov    %eax,-0x20(%ebp)
 6a6:	65 a1 14 00 00 00    	mov    %gs:0x14,%eax
 6ac:	89 45 f4             	mov    %eax,-0xc(%ebp)
 6af:	31 c0                	xor    %eax,%eax
 6b1:	e8 3a fe ff ff       	call   4f0 <geteuid@plt>
 6b6:	89 c6                	mov    %eax,%esi
 6b8:	e8 33 fe ff ff       	call   4f0 <geteuid@plt>
 6bd:	56                   	push   %esi
 6be:	50                   	push   %eax
 6bf:	e8 4c fe ff ff       	call   510 <setreuid@plt>
 6c4:	83 c4 08             	add    $0x8,%esp
 6c7:	8d 83 30 e8 ff ff    	lea    -0x17d0(%ebx),%eax
 6cd:	50                   	push   %eax
 6ce:	e8 2d fe ff ff       	call   500 <puts@plt>
 6d3:	83 c4 04             	add    $0x4,%esp
 6d6:	8d 83 48 e8 ff ff    	lea    -0x17b8(%ebx),%eax
 6dc:	50                   	push   %eax
 6dd:	e8 ee fd ff ff       	call   4d0 <printf@plt>
 6e2:	83 c4 04             	add    $0x4,%esp
 6e5:	8d 45 e4             	lea    -0x1c(%ebp),%eax
 6e8:	50                   	push   %eax
 6e9:	8d 83 52 e8 ff ff    	lea    -0x17ae(%ebx),%eax
 6ef:	50                   	push   %eax
 6f0:	e8 3b fe ff ff       	call   530 <__isoc99_scanf@plt>
 6f5:	83 c4 08             	add    $0x8,%esp
 6f8:	8d 83 55 e8 ff ff    	lea    -0x17ab(%ebx),%eax
 6fe:	50                   	push   %eax
 6ff:	8d 45 e4             	lea    -0x1c(%ebp),%eax
 702:	50                   	push   %eax
 703:	e8 b8 fd ff ff       	call   4c0 <strcmp@plt>
 708:	83 c4 08             	add    $0x8,%esp
 70b:	85 c0                	test   %eax,%eax
 70d:	75 11                	jne    720 <main+0x93>
 70f:	8d 83 5c e8 ff ff    	lea    -0x17a4(%ebx),%eax
 715:	50                   	push   %eax
 716:	e8 e5 fd ff ff       	call   500 <puts@plt>
 71b:	83 c4 04             	add    $0x4,%esp
 71e:	eb 0f                	jmp    72f <main+0xa2>
 720:	8d 83 6b e8 ff ff    	lea    -0x1795(%ebx),%eax
 726:	50                   	push   %eax
 727:	e8 d4 fd ff ff       	call   500 <puts@plt>
 72c:	83 c4 04             	add    $0x4,%esp
 72f:	b8 00 00 00 00       	mov    $0x0,%eax
 734:	8b 55 f4             	mov    -0xc(%ebp),%edx
 737:	65 33 15 14 00 00 00 	xor    %gs:0x14,%edx
 73e:	74 05                	je     745 <main+0xb8>
 740:	e8 7b 00 00 00       	call   7c0 <__stack_chk_fail_local>
 745:	8d 65 f8             	lea    -0x8(%ebp),%esp
 748:	5b                   	pop    %ebx
 749:	5e                   	pop    %esi
 74a:	5d                   	pop    %ebp
 74b:	c3                   	ret    
 74c:	66 90                	xchg   %ax,%ax
 74e:	66 90                	xchg   %ax,%ax

00000750 <__libc_csu_init>:
 750:	55                   	push   %ebp
 751:	57                   	push   %edi
 752:	56                   	push   %esi
 753:	53                   	push   %ebx
 754:	e8 37 fe ff ff       	call   590 <__x86.get_pc_thunk.bx>
 759:	81 c3 67 18 00 00    	add    $0x1867,%ebx
 75f:	83 ec 0c             	sub    $0xc,%esp
 762:	8b 6c 24 28          	mov    0x28(%esp),%ebp
 766:	8d b3 04 ff ff ff    	lea    -0xfc(%ebx),%esi
 76c:	e8 17 fd ff ff       	call   488 <_init>
 771:	8d 83 00 ff ff ff    	lea    -0x100(%ebx),%eax
 777:	29 c6                	sub    %eax,%esi
 779:	c1 fe 02             	sar    $0x2,%esi
 77c:	85 f6                	test   %esi,%esi
 77e:	74 25                	je     7a5 <__libc_csu_init+0x55>
 780:	31 ff                	xor    %edi,%edi
 782:	8d b6 00 00 00 00    	lea    0x0(%esi),%esi
 788:	83 ec 04             	sub    $0x4,%esp
 78b:	55                   	push   %ebp
 78c:	ff 74 24 2c          	pushl  0x2c(%esp)
 790:	ff 74 24 2c          	pushl  0x2c(%esp)
 794:	ff 94 bb 00 ff ff ff 	call   *-0x100(%ebx,%edi,4)
 79b:	83 c7 01             	add    $0x1,%edi
 79e:	83 c4 10             	add    $0x10,%esp
 7a1:	39 fe                	cmp    %edi,%esi
 7a3:	75 e3                	jne    788 <__libc_csu_init+0x38>
 7a5:	83 c4 0c             	add    $0xc,%esp
 7a8:	5b                   	pop    %ebx
 7a9:	5e                   	pop    %esi
 7aa:	5f                   	pop    %edi
 7ab:	5d                   	pop    %ebp
 7ac:	c3                   	ret    
 7ad:	8d 76 00             	lea    0x0(%esi),%esi

000007b0 <__libc_csu_fini>:
 7b0:	f3 c3                	repz ret 
 7b2:	66 90                	xchg   %ax,%ax
 7b4:	66 90                	xchg   %ax,%ax
 7b6:	66 90                	xchg   %ax,%ax
 7b8:	66 90                	xchg   %ax,%ax
 7ba:	66 90                	xchg   %ax,%ax
 7bc:	66 90                	xchg   %ax,%ax
 7be:	66 90                	xchg   %ax,%ax

000007c0 <__stack_chk_fail_local>:
 7c0:	53                   	push   %ebx
 7c1:	e8 ca fd ff ff       	call   590 <__x86.get_pc_thunk.bx>
 7c6:	81 c3 fa 17 00 00    	add    $0x17fa,%ebx
 7cc:	83 ec 08             	sub    $0x8,%esp
 7cf:	e8 0c fd ff ff       	call   4e0 <__stack_chk_fail@plt>

Disassembly of section .fini:

000007d4 <_fini>:
 7d4:	53                   	push   %ebx
 7d5:	83 ec 08             	sub    $0x8,%esp
 7d8:	e8 b3 fd ff ff       	call   590 <__x86.get_pc_thunk.bx>
 7dd:	81 c3 e3 17 00 00    	add    $0x17e3,%ebx
 7e3:	83 c4 08             	add    $0x8,%esp
 7e6:	5b                   	pop    %ebx
 7e7:	c3                   	ret    
